ppc

/Volumes/ppcData/builds/rdc20dev/Ship/Test/Office/Netlib.framework/Versions/12/Netlib(single module):
00000000 t ___dso_handle
00000000 t __mh_dylib_header
000010a0 t dyld_stub_binding_helper
000010d8 t __dyld_func_lookup
00001100 t _cxa_atexit_check_2
00001128 t _cxa_atexit_check_1
000011a0 t _check_cxa_atexit
0000126c t _find_atexit_10_3
000014a4 t _get_globals
00001794 t _add_routine
000018e0 t _run_routines
00001a64 t _cxa_atexit_wrapper
00001bfc t _our_atexit
00001d18 t _atexit_common
00002038 t ___cxa_atexit
000020c0 t _strncpy_s
00002220 t _strnlen
00002260 t _strtok_s
00002350 t _strcpy_s
0000240c t __putc_nolock
00002448 t __safecrt_cfltcvt
00002540 t _xtoa_s
00002698 t __itoa_s
000026e0 t _sprintf_s
00002720 t __snprintf_s
00002760 t __vsnprintf_helper
0000286c t __vsprintf_s
00002920 t __vsnprintf_s
00002aa4 t __vscprintf
00002b20 t _write_string
00002c28 t __output_s
00003710 t _write_string
00003818 t __output
00004290 t __Z14MonthFromTokenPKci
00004308 t __Z17TimeZoneFromTokenPKci
00004490 t __Z8CchTokenPKcS0_
00004520 t __Z9GetNumberPKcS0_Pi
000045b8 t __Z12GetTimeOfDayPKciPiS1_S1_
00004758 T _NLLongDateToInetString
00004840 t __Z9SkipWhitePKcS0_
000048c8 t __Z13ParseDateTimePKciP2tm
00004dbc t __Z22NLInetStringToUnixTimePK10__CFStringP2tm
00004e78 T _NLInetStringToLongDate
00004f60 t __ZN13NLAddressInet7GetNameEPPK10__CFString
00004fe0 t __ZN13NLAddressInet15GetOfficialNameEPPK10__CFString
00005054 t __ZN13NLAddressInet15GetOfficialNameER8StString
000050b4 t __ZN13NLAddressInet17IsNameUnQualifiedEPK10__CFString
00005124 t __ZN13NLAddressInet13IsIPv4AddressEPKc
00005208 t __ZN13NLAddressInet14GetHostAtIndexEltR6NLHost
000052f4 t __ZN13NLAddressInet15GetHostAsStringEPPK10__CFString
00005394 t __ZN13NLAddressInet24CopyHostStringAsCFStringEPPK10__CFString
00005400 T _NLGetAddressName
000054ac t __ZN13NLAddressInet15GetHostAsStringER8StString
0000550c t __ZN13NLAddressInet24CopyHostStringAsStStringER8StString
00005578 t __ZN13NLAddressIneteqERS_
0000571c T _NLDisposeAddress
00005784 t __ZN13NLAddressInet17IsRFC2396HostNameEPK10__CFString
00005854 t __ZN13NLAddressInet7SetNameEPK10__CFString
000058dc t __ZN13NLAddressInet20CreateArrayWithAddrsER9NLCFArrayPP8in6_addr
000059d0 t __ZN13NLAddressInet20CreateArrayWithAddrsER9NLCFArrayPP7in_addr
00005ac4 t __ZN13NLAddressInet7SetHostEPK7in_addr
00005b68 t __ZN13NLAddressInet7SetHostEm
00005c14 t __ZN13NLAddressInet7ResolveEP10NLNotifierP22NLConnectionConcurrent
00005d90 t __ZN13NLAddressInet18ResolveIfNecessaryEP10NLNotifierP22NLConnectionConcurrent
00005e04 T _NLResolveAddress
00005e9c t __ZN13NLAddressInetD0Ev
00005f3c t __ZN13NLAddressInetD1Ev
00005fdc t __ZN13NLAddressInetC1Ev
00006080 t __ZN13NLAddressInet6CreateERK6NLHostPPS_
00006178 t __ZN13NLAddressInet6CreateEmPPS_
00006214 t __ZN13NLAddressInet6CreateEPK10__CFStringPPS_
000062c4 T _NLCreateAddress
00006350 T _NLDiscardBufferData
000063b4 T _NLDisposeBuffer
0000641c T _NLGetBufferDataSize
00006484 T _NLGetBufferDataPtr
000064e8 T _NLReleaseBufferDataPtr
00006550 T _NLAddDataToBuffer
000065b4 t __ZN8NLBufferD0Ev
00006638 t __ZN8NLBufferD1Ev
000066c0 t __ZN8NLBufferC1Ev
00006718 t __ZN8NLBuffer4InitEPK5FSRef12NLBufferMode
000067e4 t __ZN8NLBuffer12CreateBufferEPK5FSRef12NLBufferModePPS_
0000687c T _NLCreateBuffer
000068e0 t __ZN17NLMemoryMapBuffer21ReleaseBufferWritePtrEm
000069b4 t __ZN17NLMemoryMapBuffer9EmptyFileEv
00006a90 t __ZN17NLMemoryMapBuffer17DiscardBufferDataEv
00006b4c t __ZN17NLMemoryMapBuffer15AddDataToBufferEPKvm
00006c30 t __ZN17NLMemoryMapBuffer13CompactBufferEv
00006d54 t __ZN17NLMemoryMapBuffer14GetNewTempFileEP5FSRef
00006e48 t __ZN17NLMemoryMapBuffer15DumpBytesToDiskEPcm
00006f58 t __ZN17NLMemoryMapBuffer24TryDumpUnreadBytesToFileEPmPh
00007090 t __ZN17NLMemoryMapBuffer11AllocBufferEm
00007148 t __ZN17NLMemoryMapBuffer17GetBufferDataSizeEv
000071d4 t __ZN17NLMemoryMapBuffer24GetBufferDataPtrInternalEPPKvPm
000073b4 t __ZN17NLMemoryMapBuffer16GetBufferDataPtrEPPKvPm
00007470 t __ZN17NLMemoryMapBuffer13ReleaseMemMapEPNS_6MemMapE
00007508 t __ZN17NLMemoryMapBuffer9NewMemMapEm
0000757c t __ZN17NLMemoryMapBuffer4InitEPK5FSRefh
000076a4 t __ZN17NLMemoryMapBuffer20EnsureSpaceAvailableEm
000078a4 t __ZN17NLMemoryMapBuffer17GetBufferWritePtrEmPPv
00007974 t __ZN17NLMemoryMapBuffer28ReleaseBufferDataPtrInternalEm
00007a40 t __ZN17NLMemoryMapBuffer21WriteBufferDataToFileEPK5FSRef
00007ccc t __ZN17NLMemoryMapBuffer20ReleaseBufferDataPtrEm
00007d5c t __ZN17NLMemoryMapBufferD0Ev
00007e60 t __ZN17NLMemoryMapBufferD1Ev
00007f68 t __ZN17NLMemoryMapBufferC1Ev
00008020 t __ZN25NLReadOnlyMemoryMapBuffer16GetBufferDataPtrEPPKvPm
000080b4 t __ZN25NLReadOnlyMemoryMapBuffer20ReleaseBufferDataPtrEm
0000812c t __ZN25NLReadOnlyMemoryMapBuffer4InitEPK5FSRefh
00008200 t __Z16GetValueOfCFDataPKv
000082a0 t __ZN15NLClientContext9GetObjectEP21OpaqueNLClientContext
000082e8 t __ZN15NLClientContextD0Ev
0000837c t __ZN15NLClientContextD1Ev
00008414 T _NLDisposeClientContext
00008484 t __ZN15NLClientContextC1Ev
000084e4 t __ZN15NLClientContext19CreateClientContextEPPS_
000085b8 T _NLCreateClientContext
00008620 t __ZN12NLConnection14DetachResponseEP17NLMessageResponse
0000863c t __ZN12NLConnection5CloseEb
000086fc t __ZN12NLConnection19AddDataToRecvBufferEPKvm
00008784 t __ZN12NLConnection13SetPersistentEb
00008788 t __ZNK12NLConnection12IsPersistentEv
00008790 t __ZN12NLConnection14AttachResponseEP17NLMessageResponse
000087b0 t __ZN12NLConnection20AddToConnectionCacheEv
000087c4 t __ZN12NLConnection15SwitchDataLayerEv
00008868 t __ZN12NLConnection16NegotiateSOCKSv5ERh
000088f8 t __ZN12NLConnection10SetOptionsEm
000089c0 t __ZN12NLConnection9OpenBoundERK6NLHostmPt
00008b28 t __ZN12NLConnection6AcceptEPS_
00008c44 T _NLConnectionCancelOperation
00008ce4 t __ZN12NLConnection16DiscardRemainingEv
00008d4c t __ZN12NLConnection18ClearClientContextEv
00008d84 t __ZN12NLConnection10SetAddressEP13NLAddressInet
00008de8 t __ZN12NLConnection4OpenEP13NLAddressInettm
00008fd4 t __ZN12NLConnection10SetAddressEPK10__CFString
00009018 t __ZN12NLConnection8SetProxyEP7NLProxy
0000907c t __ZN12NLConnection21GetSOCKSv5CredentialsE16NLAuthSchemeEnumPPK10__CFStringS4_
00009338 t __ZN12NLConnection16SetClientContextEP15NLClientContext
0000939c t __ZN12NLConnectionD0Ev
00009464 t __ZN12NLConnectionD1Ev
00009524 t __ZN12NLConnectionD2Ev
000095e4 t __ZN12NLConnectionC1EP7NLProxyP15NLClientContextRK11NLClassInfo
000096a0 t __ZN12NLConnectionC2EP7NLProxyP15NLClientContextRK11NLClassInfo
0000975c t __ZN12NLConnection24AuthenticateSOCKSv5BasicEPK10__CFStringS2_
00009924 T _NLCreateConnection
00009b5c t __ZN12NLConnection11DoReconnectEt
00009cc4 t __ZN12NLConnection19AuthenticateSOCKSv5Ev
00009e80 t __ZN12NLConnection11OpenSOCKSv5Ev
00009f6c t __ZN12NLConnection11OpenSOCKSv4Ev
0000a094 t __ZN12NLConnection9OpenSOCKSEv
0000a148 t __ZN12NLConnection10OpenTunnelEv
0000a3ac t __ZN12NLConnection9ReconnectEt
0000a4e4 T _NLSendTo
0000a790 T _NLSend
0000a990 T _NLDisposeConnection
0000aa80 T _NLReceive
0000ac74 T _NLCopyConnectionPeer
0000ae04 T _NLCopyConnectionBinding
0000af94 T _NLGetConnectionSecurityInfo
0000b058 T _NLGetConnectionOptions
0000b0f4 T _NLConnectionHasServerDisconnected
0000b1c4 T _NLConnectionAttachNotifier
0000b2c4 T _NLConnectionResetCancellation
0000b370 T _NLAcceptConnection
0000b520 T _NLSetConnectionOptions
0000b600 t __Z21GetOSStatusFromHerrnoi
0000b69c t __ZN10NLDNSQuery21DomainNameSystemQueryEPNS_11DNSIdleInfoEP13DNSThreadInfoPFPvS4_E
0000b838 t __ZN10NLDNSQuery9DNRThreadEPv
0000b9a8 t __ZN10NLDNSQuery14DNSQueryThreadEPv
0000bb44 t __ZN10NLDNSQuery19DNSHostByAddrThreadEPv
0000bcb4 t __ZN10NLDNSQuery16GetHostByAddressEhPK10__CFStringP10NLNotifierPS2_
0000bd68 T _NLGetHostByAddress
0000bdd4 t __ZN10NLDNSQuery8DNSQueryEPK10__CFStringiiP10NLNotifierPP13NLDNSResponse
0000beb4 T _NLQueryDNS
0000bf94 t __ZN10NLDNSQuery21DynamicNameResolutionEPK10__CFStringP10NLCFStringP9NLCFArrayPNS_11DNSIdleInfoE
0000c050 t __ZNK13NLDNSResponse24GetResourceRecordAtIndexElPPK10__CFStringPsS4_PmPPK8__CFData
0000c150 T _NLDisposeDNSResponse
0000c18c T _NLDNSResponseGetResourceRecordCount
0000c1a4 T _NLDNSResponseGetResourceRecordAtIndex
0000c1b8 t __ZN13NLDNSResponseC1Ev
0000c1e8 t __ZN13NLDNSResponse14CreateResponseEPKhmPPS_
0000c4d8 t __ZN13NLDNSResponseD1Ev
0000c594 t __ZN13NLDNSResponseD0Ev
0000c660 t __ZN6NLHost11GetAsStringEPPK10__CFString
0000c690 t __ZNK6NLHost11GetIPv4HostERm
0000c6c4 t __ZN6NLHostC1Et
0000c750 t __ZN6NLHostC1Ev
0000c7c4 t __ZN6NLHostC1EPK7in_addr
0000c848 t __ZN6NLHostC1EPK8in6_addr
0000c8e0 t __ZN9NLMessage4GrowEm
0000c970 t __ZN9NLMessage13GetConnectionEv
0000c978 t __ZN9NLMessageD0Ev
0000ca14 t __ZN9NLMessageD1Ev
0000caa8 t __ZN9NLMessageD2Ev
0000cb48 t __ZN9NLMessageC2ERK11NLClassInfo
0000cba4 T _NLDisposeMessage
0000cc60 t __ZN16NLMessageRequestC2ERK11NLClassInfo
0000ccb0 t __ZN16NLMessageRequestC1ERK11NLClassInfo
0000cd00 t __ZN16NLMessageRequest14GetBodyDataPtrElPPKvPm
0000cd90 t __ZN16NLMessageRequest18ReleaseBodyDataPtrElm
0000ce00 t __ZN16NLMessageRequest15GetBodyDataSizeEl
0000ce68 t __ZN16NLMessageRequest13SetConnectionER12NLConnection
0000ce70 t __ZN16NLMessageRequest10AppendDataEPKvm
0000ced8 t __ZN16NLMessageRequest12AttachBufferER8NLBuffer
0000cf4c t __ZN16NLMessageRequest7ReplaceEmmPKvm
0000d034 t __ZN16NLMessageRequest14StripBlankLineEv
0000d084 t __ZN16NLMessageRequest4SendER12NLConnectionPK6NLHost
0000d1b0 T _NLMessageAppendData
0000d28c T _NLMessageAttachBuffer
0000d380 T _NLSetMessageAuthOptions
0000d410 t __ZN16NLMessageRequestD2Ev
0000d47c t __ZN16NLMessageRequestD1Ev
0000d4e8 t __ZN16NLMessageRequestD0Ev
0000d55c T _NLCreateMessage
0000d5e4 t __ZN16NLMessageRequest11AppendLineVEPK10__CFStringPc
0000d724 T _NLMessageAppendLine
0000d800 t __ZN16NLMessageRequest10AppendLineEPK10__CFStringz
0000d844 t __ZN16NLMessageRequest10SetHeaderVEPKcPK10__CFStringPc
0000dab4 T _NLMessageSetHeader
0000dbd8 t __ZN16NLMessageRequest12StripHeadersEPKc
0000dc2c t __ZN16NLMessageRequest9SetHeaderEPKcPK10__CFStringz
0000dc6c t __ZN16NLMessageRequest23AppendHeaderAtCRLFCRLFVEbPKcPK10__CFStringPc
0000dfb0 t __ZN16NLMessageRequest22AppendHeaderAtCRLFCRLFEbPKcPK10__CFStringz
0000e004 t __ZN16NLMessageRequest11EditCommandEPKcS1_z
0000e1b0 t __ZN17NLMessageResponseC2EP12NLConnectionP8NLBufferbRK11NLClassInfo
0000e260 t __ZN17NLMessageResponseC1EP12NLConnectionP8NLBufferbRK11NLClassInfo
0000e310 t __ZN17NLMessageResponse22CheckIfHeadersExpectedEPKcm
0000e320 t __ZN17NLMessageResponse8NextLineEPKc
0000e3b8 t __ZN17NLMessageResponse11WaitForDataEv
0000e3f8 t __ZN17NLMessageResponse11ReceiveMoreEv
0000e748 t __ZN17NLMessageResponse15ProcessBodyDataEPKcm
0000e774 t __ZN17NLMessageResponse15ReceiveBodyDataEmmPm
0000e7b0 t __ZN17NLMessageResponse11ParseStatusEPKciPlPPK10__CFString
0000e7d8 t __ZN17NLMessageResponse11ParseHeaderEPKcS1_PiS2_
0000e888 t __ZN17NLMessageResponse16DiscardRemainingEv
0000e890 t __ZN17NLMessageResponseD2Ev
0000e944 t __ZN17NLMessageResponseD1Ev
0000e9f8 t __ZN17NLMessageResponseD0Ev
0000eab4 t __ZN17NLMessageResponse15WaitForBodyDataEm
0000ec60 T _NLReceiveMore
0000ed5c t __ZN17NLMessageResponse9GetStatusEPlPPK10__CFString
0000ee88 T _NLMessageGetStatus
0000ef5c t __ZN17NLMessageResponse14FindNextHeaderElPKc
0000f1a8 t __ZN17NLMessageResponse17GetHeaderAtOffsetElP8StStringS1_
0000f330 t __ZN17NLMessageResponse21GetNextMatchingHeaderERlPKcP8StString
0000f440 T _NLMessageGetNextMatchingHeader
0000f5cc t __ZN17NLMessageResponse9GetHeaderEPKcP8StString
0000f600 T _NLMessageGetHeader
0000f798 t __ZN17NLMessageResponse13GetNextHeaderERlP8StStringS2_
0000f9e0 T _NLMessageGetNextHeader
0000fb80 t __Z30NLGetThreadIDForCurrentPThreadv
0000fbd4 t __ZN7NLMutex4GrabEv
0000fc98 t __ZN7NLMutex7ReleaseEv
0000fcc8 t __ZN7NLMutex8CondWaitER22_opaque_pthread_cond_t
0000fd3c t __ZN7NLMutex15CondWaitTimeoutER22_opaque_pthread_cond_tRK8timespec
0000fdb4 T _NLDisposeCriticalRegion
0000fe20 t __ZN7StMutexC1ER7NLMutex
0000fe84 t __ZN7StMutexD1Ev
0000fef4 t __ZN16NLCriticalRegion4ExitEv
0000ff98 T _NLExitCriticalRegion
0000ffec t __ZN16NLCriticalRegion5EnterEl
0001013c T _NLEnterCriticalRegion
00010190 t __ZN7StMutexD0Ev
00010204 t __ZN16NLCriticalRegionD0Ev
0001028c t __ZN16NLCriticalRegionD1Ev
0001030c t __ZN16NLCriticalRegionC1Eb
000103a8 t __Z28CreateCriticalRegionInternalbPP22OpaqueNLCriticalRegion
0001042c T _NLCreateRecursiveCriticalRegion
00010438 T _NLCreateCriticalRegion
00010450 t __ZN16NLNotifierByProc6NotifyEP18OpaqueNLConnectionmlPv
00010460 T _NLDisposeNotifier
000104c8 t __ZN15NLNotifierStack6NotifyEP18OpaqueNLConnectionmlPv
0001056c t __ZN15NLNotifierStack19GeneralNotifierProcEP10NLNotifierPS_P22NLConnectionConcurrent14NLNotificationm
0001067c t __ZN15NLNotifierStack15DNSIdleNotifierEP10NLNotifierP22NLConnectionConcurrentm
00010694 t __ZN15NLNotifierStack18SocketNotifierProcEPv
000106f0 t __ZN15NLNotifierStack6AttachEP10NLNotifier
00010778 t __ZN15NLNotifierStack9DetachAllEv
000107f4 t __ZN15NLNotifierStack14CloseNotifiersEv
0001085c t __ZN10NLNotifierD0Ev
000108ac t __ZN10NLNotifierD1Ev
000108d8 t __ZN10NLNotifierD2Ev
00010910 t __ZN10NLNotifierC2EPvRK11NLClassInfo
0001096c t __ZN16NLNotifierByProcC1EPvPFlS0_P18OpaqueNLConnection14NLNotificationlS0_E
000109c0 T _NLCreateNotifier
00010a88 t __ZN15NLNotifierStackC1Ev
00010ae8 t __ZN15NLNotifierStack13OpenNotifiersEv
00010b40 t __ZN17NLProxySharedInfo7SetUserEPK10__CFStringS2_
00010c04 t __ZN17NLProxySharedInfo23CopyGSSAPIPrincipalNameEv
00010c40 t __ZN17NLProxySharedInfo12CopyPasswordEv
00010c7c t __ZN17NLProxySharedInfo8CopyUserEv
00010cb8 T _NLDisposeProxy
00010cec T _NLGetProxyAddressAndPort
00010d74 T _NLSetProxyData
00010d94 t __ZN17NLProxySharedInfo30CopyGSSAPIPrincipalCredentialsEv
00010dd8 t __ZN7NLProxyC1ER17NLProxySharedInfo
00010e60 t __ZN17NLProxySharedInfoC1E15NLProxyTypeEnum
00010ed8 t __ZN7NLProxy10SetAddressEPK10__CFStringt
00010f20 t __ZN7NLProxy6CreateEPK10__CFStringtR17NLProxySharedInfoPPS_
00010fe8 t __ZN7NLProxy6CreateE15NLProxyTypeEnumPK10__CFStringtPPS_
00011088 T _NLCreateProxy
000110fc t __ZN7NLProxyD0Ev
000111cc t __ZN7NLProxyD1Ev
0001129c t __ZN17NLProxySharedInfo18SetGSSAPIPrincipalEPK10__CFStringP11NLGSSCredID
00011344 T _NLSetGSSAPIProxyData
0001136c t __ZN17NLProxySharedInfoD0Ev
00011430 t __ZN17NLProxySharedInfoD1Ev
000114f0 t __ZN10NLProxyMgr11CreateProxyEPK14__CFDictionaryPK10__CFStringS5_S5_t15NLProxyTypeEnumPP17NLProxySharedInfoPS5_Pt
00011638 t __ZN10NLProxyMgr14DisposeProxiesEv
0001178c t __ZN10NLProxyMgrD0Ev
00011808 t __ZN10NLProxyMgrD1Ev
00011880 t __ZN10NLProxyMgrC1Ev
00011978 t __ZN10NLProxyMgr12CloseServiceEv
00011a0c t __ZN10NLProxyMgr23UseProxyForHostInternalER13NLAddressInet
00011b54 t __ZN10NLProxyMgr16GetProxyInternalE15NLProxyTypeEnumP13NLAddressInetPhPP7NLProxy
00011c50 t __ZN10NLProxyMgr19ParseNoProxyDomainsEPK9__CFArray
00012028 t __ZN10NLProxyMgr11ReadProxiesEv
0001221c t __ZN10NLProxyMgr13NotifierEntryEPvP18OpaqueNLConnection14NLNotificationlS0_
000122a0 t __ZN10NLProxyMgr11OpenServiceEv
000123e4 t __ZN10NLProxyMgr15UseProxyForHostEP13NLAddressInetP10NLNotifierPh
000124bc T _NLUseProxyForHost
0001257c t __ZN10NLProxyMgr8GetProxyE15NLProxyTypeEnumP13NLAddressInetP10NLNotifierPhPP7NLProxy
00012680 T _NLGetSOCKSProxy
00012768 T _NLGetSecureProxy
00012850 T _NLGetHTTPProxy
00012938 T _NLGetFTPProxy
00012a20 t __Z27_NL_RemoteCallThreadReceiveP16__CFRunLoopTimerPv
00012acc t __ZN10NLNotifier25ReceiveRemoteNotificationEPv
00012b20 T _NLGetRemoteCallMachProc
00012b24 T _NLRemoteCallThread
00012d70 T _NLNotifyThread
00012e74 t __ZN8NLSocketC1EPFlPvES0_
00012eb8 t __ZN8NLSocket4OpenEiii
00012f44 t __ZN8NLSocket5CloseEv
00012fb4 t __ZN8NLSocket6ListenEi
00012ffc t __ZN8NLSocket7ConnectERK6NLHost
0001309c t __ZN8NLSocket15ResetConnectionERK6NLHosti
00013110 t __ZN8NLSocket12SetKeepAliveEb
00013164 t __ZN8NLSocket17ResetCancellationEv
00013170 t __ZN8NLSocket4BindERK6NLHost
000131cc t __ZN8NLSocketD1Ev
000131f0 t __ZN8NLSocketD0Ev
00013238 t __ZN8NLSocket6AcceptEPS_
00013370 t __ZN8NLString16DisposeBufferMemEv
000133e0 t __ZN8NLString14SetSizePrivateEm
00013468 t __ZN8NLString14SetTextPrivateEPKcm
000134ec t __ZN8StString7SetSizeEm
00013598 t __ZN8StString3SetEPK10__CFStringm
00013624 t __ZN8StString3SetEPKcm
0001368c t __ZN8StString12SetFormattedEPKcz
00013714 t __ZN8StString20SetFormattedWithArgsEPK10__CFStringPc
00013784 t __ZN8StString12SetFormattedEPK10__CFStringz
000137c8 t __ZN8StString6AppendEPKcm
00013880 t __ZN8StString6AppendERS_
000138d0 t __ZN8NLStringD1Ev
00013968 t __ZN8NLStringD0Ev
000139f8 t __ZN8StStringC1Ev
00013a40 t __ZN8StStringC1EmPKc
00013af8 t __ZN8StStringC1EPKcPc
00013bb0 t __ZN8NLString18SetCFStringPrivateEPK10__CFStringm
00013c8c t __ZN8StString3SetER8NLString
00013d04 t __ZN8StStringC1ER8NLString
00013d80 t __ZN5NLURL6SetURLEPK7__CFURL
00013de0 t __ZN5NLURL6SetURLEPK10__CFStringb
00013ea8 t __ZN5NLURL6SetURLEPKcb
00013f70 t __ZNK5NLURL10GetPortNumEv
00013f90 t __ZNK5NLURL11GetHostNameEPPK10__CFString
00013fe8 t __ZNK5NLURL27GetPathAndResourceSpecifierEPPK10__CFString
000140c4 t __ZN5NLURL6DetachEv
000140d8 t __ZNK5NLURL10IsAbsoluteEv
00014120 t __ZN5NLURL24CopyDirectoryPathFromURLEPK7__CFURLPPK10__CFString
000141d0 t __ZNK5NLURL13IsMissingPathEv
00014298 t __ZN5NLURL17CreateAbsoluteURLEP12NLConnectionPKc
00014464 t __ZN5NLURL22AddMissingPathIfNeededEv
000144e8 t __ZN5NLURL14FixURLIfNeededEP12NLConnectionPKc
00014568 t __ZN5NLURLD0Ev
000145ec t __ZNK5NLURL8IsSchemeEPK10__CFString
00014664 t __ZN5NLURLC1Ev
00014698 t __ZN5NLURLD1Ev
00014718 t __ZN5NLURL11CreateCFURLEPK10__CFStringS2_sPKcPPK7__CFURL
00014860 t __ZN5Lexer10GetKeyWordEPKcRK10regmatch_t
000148fc t __ZN5Lexer10LexIntegerEPKcS1_
000149e0 t __ZN7UNetLib14CloseParseUtilEv
00014a64 t __ZN5Lexer5MatchEPKcS1_P10regmatch_tm
00014af8 t __ZN5LexerC1EPKcPS1_mi
00014b84 t __ZN7UNetLib13OpenParseUtilEv
00014c70 t __Z22GetIPAddressesFromListPKvS0_Pv
00014d54 t __Z24MySCNotificationCallbackPK16__SCDynamicStorePK9__CFArrayPv
00014f64 t __ZN7UNetLib16CloseSCUtilitiesEv
00014fe8 t __ZN7UNetLib15OpenSCUtilitiesEv
00015240 t __ZN17StSOCKSv4Response7ReceiveEPi
000152c4 t __ZN17StSOCKSv5Response7ReceiveEmiPh
00015354 t __ZN16StSOCKSv5Request8SendFQDNEisR13NLAddressInetP22NLConnectionConcurrent
0001549c t __ZN16StSOCKSv4Request18SendWithDomainNameEisR13NLAddressInetP22NLConnectionConcurrent
000155d4 t __ZN16StSOCKSv5Request8SendIPv4EisR13NLAddressInetP22NLConnectionConcurrent
000156f4 t __ZN16StSOCKSv4Request9SendBasicEisR13NLAddressInetP22NLConnectionConcurrent
00015800 t __ZN7UNetLib12CloseLibraryEv
000158fc t __ZN7UNetLib11ClearCachesEv
00015944 T _NLLibraryClose
00015948 T _NLLibrarySetUserAgent
00015984 T _NLLibrarySetAcceptLanguage
000159c0 T _NLLibraryClearCaches
00015a34 t __ZN7UNetLib11OpenLibraryEm
00015d30 T _NLLibraryOpen
00015d40 t __ZN9UUnixUtil25GetOSStatusFromUnixStatusEl
00016000 t __ZN7AuthCtx20ClearProxyCredsOwnerEv
00016040 t __ZN7AuthCtx5FInitEPK12NLConnectionP18NLCredentialsBlockb
0001604c t __ZN7AuthCtx12GetAuthStateEv
00016054 t __ZN7AuthCtx24IsSessionBasedAuthSchemeEv
0001605c t __ZN7AuthCtx10TrimQuotesEPPKcPm
000160b4 t __ZN7AuthCtx14TrimWhiteSpaceEPPKcPm
00016138 t __ZN7AuthCtx17GetDelimitedTokenEPPKcPmS2_S3_c
00016218 t __ZN7AuthCtx20AuthSchemeFromStringER12NLConnectionPKc
000162d0 t __ZN7AuthCtx21FInitAuthRequiredInfoER12NLConnectionR20NLMessageRequestHTTPR17NLMessageResponseP18NLAuthRequiredInfo
0001638c t __ZN7AuthCtx18SetProxyCredsOwnerEP7NLProxy
000163ec t __ZN7AuthCtx5AllocE16NLAuthSchemeEnum
000164b4 t __ZN7AuthCtx6CreateERK12NLConnectionR18NLCredentialsBlockb
00016570 t __ZN7AuthCtx15GetKeyValuePairEPKcmPS1_PmS2_S3_
00016704 t __ZN7AuthCtx19ParseAuthHeaderDataEPKcS1_PPcbb
00016980 t __ZN7AuthCtx17GetAuthHeaderDataER17NLMessageResponsebPKcS3_PPcbRl
00016b04 t __ZN7AuthCtx6CreateER12NLConnectionR20NLMessageRequestHTTPR17NLMessageResponselb
00016e2c t __ZN7AuthCtxC2Ev
00016e64 t __ZN7AuthCtxD2Ev
00016ee4 t __ZN7AuthCtxD1Ev
00016f64 t __ZN7AuthCtxD0Ev
00016ff4 t __ZN13AuthCtx_BasicC1Ev
00017038 t __ZN13AuthCtx_Basic13GetAuthSchemeEv
00017040 t __ZN13AuthCtx_Basic14AuthOnResponseER12NLConnectionR20NLMessageRequestHTTPR17NLMessageResponsel
00017140 t __ZN13AuthCtx_BasicD1Ev
00017164 t __ZN13AuthCtx_BasicD0Ev
000171ac t __ZN13AuthCtx_Basic13AuthOnRequestER12NLConnectionR20NLMessageRequestHTTP
000173c0 t __ZN14AuthCtx_Digest5FInitEPK12NLConnectionP18NLCredentialsBlockb
00017440 t __ZN14AuthCtx_Digest13GetAuthSchemeEv
00017448 t __Z6CvtHexPcS_
000174a4 t __ZN14AuthCtx_Digest18FParseDigestDomainEPKc
000176a0 t __ZN14AuthCtx_Digest19FCalcResponseStringEPKcS1_PK10__CFStringS1_S1_P8StString
00017c9c t __ZN14AuthCtx_DigestC1Ev
00017ce8 t __ZN14AuthCtx_Digest15FParseChallengeEPKc
00018020 t __ZN14AuthCtx_Digest14AuthOnResponseER12NLConnectionR20NLMessageRequestHTTPR17NLMessageResponsel
0001815c t __ZN14AuthCtx_DigestD1Ev
00018180 t __ZN14AuthCtx_DigestD0Ev
000181c8 t __ZN14AuthCtx_Digest27FGetConditionalParamsStringEPK10__CFStringS2_PKcS4_P8StString
00018310 t __ZN14AuthCtx_Digest13AuthOnRequestER12NLConnectionR20NLMessageRequestHTTP
000187f0 t __ZN12AuthCtx_NTLM9ClearDataEv
00018874 t __ZN12AuthCtx_NTLMC1Ev
000188e8 t __ZN12AuthCtx_NTLM13GetAuthSchemeEv
000188f0 t __ZN12AuthCtx_NTLM12GetAuthStateEv
00018900 t __ZN12AuthCtx_NTLM24IsSessionBasedAuthSchemeEv
00018908 t __ZN12AuthCtx_NTLM19FReadNTLMAuthHeaderER17NLMessageResponselP8StStringP8AuthCode
00018a00 T _NLCreateNTLMNegotiationMessage
00018a54 t __ZN12AuthCtx_NTLM15FSetUserAndPassEPK10__CFStringS2_S2_
00018c14 t __ZN12AuthCtx_NTLM13AuthOnRequestER12NLConnectionR20NLMessageRequestHTTP
00018f04 t __ZN12AuthCtx_NTLMD1Ev
00018f64 t __ZN12AuthCtx_NTLMD0Ev
00018fcc T _NLCreateNTLMAuthenticationMessage
000193cc t __ZN12AuthCtx_NTLM14AuthOnResponseER12NLConnectionR20NLMessageRequestHTTPR17NLMessageResponsel
000196ec t __ZN12AuthCtx_NTLM19FCollectCredentialsER12NLConnectionR20NLMessageRequestHTTPR17NLMessageResponse
00019a00 t __ZN13NLCredentials23CastToGSSAPICredentialsEv
00019a08 t __ZN13NLCredentials25CastToUserPassCredentialsEv
00019a10 t __ZN13NLCredentialsD0Ev
00019a58 t __ZN13NLCredentialsD1Ev
00019a7c t __ZN13NLCredentialsD2Ev
00019aac t __ZN13NLCredentialsC2ERK11NLClassInfo
00019b20 t __ZN18NLCredentialsBlock15CompareHostNameEPK10__CFString
00019b2c t __ZN18NLCredentialsBlock28CastToDigestCredentialsBlockEv
00019b34 t __ZN18NLCredentialsBlock28CastToGSSAPICredentialsBlockEv
00019b3c t __ZN18NLCredentialsBlock30CastToUserPassCredentialsBlockEv
00019b44 t __ZN18NLCredentialsBlock5FInitE16NLAuthSchemeEnumPK10__CFStringtPK7__CFURLS3_
00019c24 t __ZN18NLCredentialsBlockD0Ev
00019ca8 t __ZN18NLCredentialsBlockD1Ev
00019d24 t __ZN18NLCredentialsBlockD2Ev
00019da0 t __ZN18NLCredentialsBlock8MatchURLEPK7__CFURL
00019e88 t __ZN18NLCredentialsBlock6AddURLEPK7__CFURL
00019fa8 t __ZN18NLCredentialsBlockC2ERK11NLClassInfo
0001a040 t __ZN13Private_Cache10EmptyCacheEv
0001a098 t __ZN18NLCredentialsCache6CreateE16NLAuthSchemeEnumPK10__CFStringtPK7__CFURLS3_P13NLCredentials
0001a0f8 t __ZN18NLCredentialsCache12CloseServiceEv
0001a138 t __ZN13Private_Cache16ReleaseEveryItemEv
0001a190 t __ZN13Private_Cache19FindPositionForHostEPK10__CFString
0001a204 t __ZN13Private_Cache4FindE16NLAuthSchemeEnumPK10__CFStringtPK7__CFURLS3_
0001a36c t __ZN13Private_Cache3AddEP18NLCredentialsBlock
0001a41c t __ZN13Private_CacheD0Ev
0001a49c t __ZN13Private_CacheD1Ev
0001a51c t __ZN13Private_CacheC1Ev
0001a594 t __ZN18NLCredentialsCache5FInitEv
0001a600 t __ZN18NLCredentialsCacheD0Ev
0001a684 t __ZN18NLCredentialsCacheD1Ev
0001a70c t __ZN18NLCredentialsCacheC1Ev
0001a760 t __ZN18NLCredentialsCache11CreateCacheEPPS_
0001a7f0 t __ZN18NLCredentialsCache11OpenServiceEv
0001a810 t __ZN18NLCredentialsCache16ClearGlobalCacheEv
0001a878 t __ZN18NLCredentialsCache27GetCredentialsForNTLMDomainEPK10__CFString
0001a994 t __ZN18NLCredentialsCache14GetCredentialsEbPK7__CFURLP13NLAddressInett16NLAuthSchemeEnumPK10__CFStringP13NLCredentials
0001aaf4 t __ZN18NLCredentialsCache15CopyCredentialsEPK7__CFURLP13NLAddressInettPK10__CFStringP18NLCredentialsBlock
0001ab80 t __ZN18NLCredentialsCache20GetCredentialsForFTPEbP13NLAddressInettPK10__CFString
0001ace8 t __ZN18NLCredentialsCache14GetCredentialsEbR20NLMessageRequestHTTPR12NLConnection16NLAuthSchemeEnumPK10__CFString
0001ad78 t __ZN18NLCredentialsCache28GetCredentialsForHTTPPreAuthEbR20NLMessageRequestHTTPR12NLConnection
0001ae10 t __ZN24NLDigestCredentialsBlock8SetNonceEPK10__CFString
0001ae84 t __ZN24NLDigestCredentialsBlock9SetOpaqueEPKc
0001af14 t __ZN24NLDigestCredentialsBlock17GetNextNonceCountEv
0001af64 t __ZN24NLDigestCredentialsBlock28CastToDigestCredentialsBlockEv
0001af68 t __ZN24NLDigestCredentialsBlock5FInitE16NLAuthSchemeEnumPK10__CFStringtPK7__CFURLS3_
0001af8c t __ZN24NLDigestCredentialsBlock15SetDigestDomainEPK7__CFURL
0001b128 t __ZN24NLDigestCredentialsBlock8SetNonceEPKc
0001b1b8 t __ZN24NLDigestCredentialsBlockD1Ev
0001b288 t __ZN24NLDigestCredentialsBlockD0Ev
0001b360 t __ZN24NLDigestCredentialsBlockC1ER21NLUserPassCredentialsRK11NLClassInfo
0001b434 t __ZN24NLDigestCredentialsBlock6CreateEPK10__CFStringtPK7__CFURLS2_P13NLCredentials
0001b560 t __Z35NL_CFStringCreateWithWindowsUnicodePKct
0001b608 t __Z18PrepareSignSealKeyPhiPKcPPK8__CFData
0001b728 t __Z14PrepareSealKeyPhmPKcPPK8__CFData
0001b764 t __Z21NL_CFStringGetUnicodePK10__CFStringPPcPm
0001b804 t __Z28NL_CFStringGetWindowsUnicodePK10__CFStringPPcPm
0001b88c t __Z37NL_CFStringGetWindowsUnicodeUpperCasePK10__CFStringPPcPm
0001b910 t __Z26ReadServerChallengeMessagePKcmPPK10__CFStringPhPmPPcPtS6_S5_
0001bc68 t __Z31NTLM_ReadServerChallengeMessagebPKcmPPK10__CFStringPhPmPPcPtS6_S5_
0001bd6c t __Z13LoadTheStringPPhPKhPvP11_NTLMSTRINGS_t
0001be40 t __Z13Parse_AV_PAIRPP7AV_PAIRPKhtPPK10__CFString
0001bf3c t __Z19NTLM_ReadTargetInfoPKhtPPK10__CFStringS4_S4_S4_
0001c0e0 t __Z23NTLM_FormatNegotiateMsgbm
0001c21c t __Z35NTLMv2_PrepareAuthenticationMessagePK10__CFStringS1_S1_S1_PKhPKctmbP14NLNTLMAuthKeysPPKv
0001cdd0 t __Z19SixBit_DecodeStreamPhPlPKclPKhS_S0_
0001cf3c t __Z18Base64_DecodeBytesPKcPcPhPl
0001d05c t __Z18SixBit_EncodeBytesPKhlPKcPcPl
0001d1a4 t __Z18Base64_EncodeBytesPKhlPcPl
0001d1d0 t _NLMD4Init
0001d210 t __Z6EncodePhPmj
0001d254 t __Z12MD4TransformPmPh
0001d8dc t _NLMD4Update
0001d9c0 t _NLMD4Final
0001da64 t __ZN9NLCFArrayC1Ev
0001daa8 t __ZN9NLCFArray9SetValuesEPPKvlPK16CFArrayCallBacks
0001db50 t __ZN9NLCFArray10SetCFArrayEPK9__CFArray
0001dbec t __ZN15StCFArrayAccessC1ER9NLCFArray
0001dc30 t __ZN15StCFArrayAccessD0Ev
0001dc7c t __ZN9NLCFArrayD1Ev
0001dca0 t __ZN9NLCFArrayD0Ev
0001dcec t __ZN15StCFArrayAccessD1Ev
0001dd10 t __ZN16NLCFMutableArrayC1Ev
0001dd84 t __ZN22StCFMutableArrayAccessC1ER16NLCFMutableArray
0001ddc8 t __ZN22StCFMutableArrayAccessD0Ev
0001de14 t __ZN16NLCFMutableArrayD1Ev
0001de38 t __ZN16NLCFMutableArrayD0Ev
0001de84 t __ZN22StCFMutableArrayAccessD1Ev
0001deb4 t __ZN10NLCFStringC1Ev
0001def8 t __ZN10NLCFString6LengthEv
0001df68 t __ZN10NLCFString7SetTextEPKcm
0001e014 t __ZN10NLCFString11SetCFStringEPK10__CFString
0001e0ac t __ZN10NLCFString10CopyStringEv
0001e124 t __ZN10NLCFString7CompareEPK10__CFStringm
0001e1c8 t __ZN16StCFStringAccessC1ER10NLCFString
0001e20c t __ZN16StCFStringAccess5CFRefEv
0001e218 t __ZN10StCFString9SetStringEPK10__CFString
0001e290 t __ZN10StCFString9SetStringEPKcm
0001e300 t __ZN10NLCFStringD1Ev
0001e324 t __ZN10NLCFStringD0Ev
0001e370 t __ZN16StCFStringAccessD1Ev
0001e394 t __ZN16StCFStringAccessD0Ev
0001e3dc t __ZN10StCFStringD0Ev
0001e464 t __ZN10StCFStringC1Ev
0001e498 t __ZN10StCFStringC1EPK10__CFString
0001e4c0 t __ZN10StCFStringC1ER10NLCFString
0001e528 t __ZN10StCFStringD1Ev
0001e5a0 t __ZN14StCFTypeAccessD0Ev
0001e618 t __ZN8NLCFTypeD1Ev
0001e6dc t __ZN8NLCFTypeD2Ev
0001e7a0 t __ZN8NLCFTypeC2Ev
0001e7d0 t __ZN8NLCFTypeD0Ev
0001e89c t __ZN14StCFTypeAccessC2ER8NLCFType
0001e904 t __ZN14StCFTypeAccessD2Ev
0001e978 t __ZN14StCFTypeAccessD1Ev
0001e9f0 t __ZN21NLConnectionDataLayer22CountRawBytesAvailableERm
0001ea00 t __ZNK21NLConnectionDataLayer15GetSecurityInfoER14NLSecurityInfoPPK8__CFData
0001ea18 t __ZN21NLConnectionDataLayerC2ER18NLSocketConcurrent
0001ea48 t __ZN21NLConnectionDataLayer4OpenER18NLSocketConcurrentR12NLConnectionP13NLAddressInetmPPS_
0001eac0 t __ZN24NLConnectionRawDataLayer4SendEPK6NLHostPKvmRmS5_
0001eb0c t __ZN24NLConnectionRawDataLayer11WaitForDataEm
0001eb14 t __ZN24NLConnectionRawDataLayer7ReceiveEPvmmPm
0001eb24 t __ZN25NLConnectionSSL2DataLayerC1ER12NLConnectionR18NLSocketConcurrent
0001ebe8 t __ZN25NLConnectionSSL2DataLayer10ComputeMacEhPKhmPh
0001ecf8 t __ZN25NLConnectionSSL2DataLayer21CreateClientMasterKeyEPPhPmP15SSL2ClientState
0001ef48 t __ZN25NLConnectionSSL2DataLayer20CreateClientFinishedEPPhPmP15SSL2ClientState
0001efbc t __ZN25NLConnectionSSL2DataLayer21ProcessServerFinishedEPKhmP15SSL2ClientState
0001f040 t __ZN25NLConnectionSSL2DataLayer13ResumeSessionEP12NLSSLSessionPS1_
0001f09c t __ZN25NLConnectionSSL2DataLayer5CloseEb
0001f110 t __ZNK25NLConnectionSSL2DataLayer6IsOpenEv
0001f124 t __ZNK25NLConnectionSSL2DataLayer15GetSecurityInfoER14NLSecurityInfoPPK8__CFData
0001f148 t __ZN25NLConnectionSSL2DataLayer18ProcessClientHelloEPcP15SSL2ClientState
0001f1bc t __ZN25NLConnectionSSL2DataLayer17CreateClientHelloEPPcPmP12NLSSLSession
0001f31c t __ZN25NLConnectionSSL2DataLayerD1Ev
0001f398 t __ZN25NLConnectionSSL2DataLayerD0Ev
0001f41c t __ZN25NLConnectionSSL2DataLayer18ProcessServerHelloEPcmhP15SSL2ClientState
0001f7c0 t __ZN25NLConnectionSSL2DataLayer15BeginEncryptionEv
0001fa08 t __ZN25NLConnectionSSL2DataLayer19DecryptCipherBufferEv
0001fcf4 t __ZN25NLConnectionSSL2DataLayer19ReceiveAllAvailableEh
0001feec t __ZN25NLConnectionSSL2DataLayer11WaitForDataEm
0001ff58 t __ZN25NLConnectionSSL2DataLayer19CountBytesAvailableERm
0001ffac t __ZN25NLConnectionSSL2DataLayer20EnsureBytesAvailableEm
00020018 t __ZN25NLConnectionSSL2DataLayer7ReceiveEPvmmPm
000200e0 t __ZN25NLConnectionSSL2DataLayer16ReceiveOneRecordEv
00020274 t __ZN25NLConnectionSSL2DataLayer8SendDataEPKvmRmS2_
00020688 t __ZN25NLConnectionSSL2DataLayer4SendEPK6NLHostPKvmRmS5_
0002069c t __ZN25NLConnectionSSL2DataLayer12SendBlockingEPKvm
00020738 t __ZN25NLConnectionSSL2DataLayer10FinishOpenEPcS0_mPP12NLSSLSession
00020ac0 t __ZN25NLConnectionSSL3DataLayerC2ER12NLConnectionR18NLSocketConcurrent
00020ba8 t __ZN25NLConnectionSSL3DataLayerC1ER12NLConnectionR18NLSocketConcurrent
00020c98 t __ZN25NLConnectionSSL3DataLayer21DeleteConnectionStateEP19SSL3ConnectionState
00020d24 t __ZN25NLConnectionSSL3DataLayer19ComputeMasterSecretEPKh
00020ed8 t __ZN25NLConnectionSSL3DataLayer10ComputeMacEPK19SSL3ConnectionStatePKhthPh
0002108c t __Z19NLSSLHostNamesMatchPK10__CFStringS1_
000211f8 t __ZN25NLConnectionSSL3DataLayer18ProcessClientHelloEPKchP15SSL3ClientState
000212b0 t __ZN25NLConnectionSSL3DataLayer23CreateClientCertificateEPPcPmP15SSL3ClientState
00021328 t __ZN25NLConnectionSSL3DataLayer20CreateClientFinishedEPPcPmPKhmP15SSL3ClientState
00021410 t __ZN25NLConnectionSSL3DataLayer22BufferHandshakeMessageEP14OpaqueNLBufferPKcPKmh
00021490 t __ZNK25NLConnectionSSL3DataLayer6IsOpenEv
000214a4 t __ZNK25NLConnectionSSL3DataLayer15GetSecurityInfoER14NLSecurityInfoPPK8__CFData
000214c8 t __ZN25NLConnectionSSL3DataLayer17CreateClientHelloEPPcPmtP12NLSSLSession
000215e4 t __ZN25NLConnectionSSL3DataLayer23CreateClientKeyExchangeEPPcPmP15SSL3ClientState
0002174c t __ZN25NLConnectionSSL3DataLayer20GetDERLengthEncodingEmPh
00021798 t __ZN25NLConnectionSSL3DataLayer13ResumeSessionEP12NLSSLSessionPS1_
000217f4 t __ZN25NLConnectionSSL3DataLayerD2Ev
000218d0 t __ZN25NLConnectionSSL3DataLayerD1Ev
000219ac t __ZN25NLConnectionSSL3DataLayerD0Ev
00021a90 t __ZN25NLConnectionSSL3DataLayer18ProcessServerHelloEPKcmP15SSL3ClientState
00021c90 t __ZN25NLConnectionSSL3DataLayer21ComputeFinishedDigestEhPKhmPPhPm
00021ee0 t __ZN25NLConnectionSSL3DataLayer18ComputeKeyMaterialEv
0002232c t __Z34NLSSLCertVerificationFailureNotifyR12NLConnectionmmP23OpaqueSecCertificateRefm
00022450 t _NLSSLCertTrustCallback
000227d8 t __ZN25NLConnectionSSL3DataLayer8SendDataE15SSL3ContentTypePKvmRmS3_
00022c14 t __ZN25NLConnectionSSL3DataLayer4SendEPK6NLHostPKvmRmS5_
00022cb0 t __ZN25NLConnectionSSL3DataLayer12SendBlockingE15SSL3ContentTypePKvm
00022d58 t __ZN25NLConnectionSSL3DataLayer22ChangeClientCipherSpecEv
00022e70 t __ZN25NLConnectionSSL3DataLayer24ProcessServerCertificateEPKcmP15SSL3ClientState
000230c4 t __ZN25NLConnectionSSL3DataLayer24ProcessServerKeyExchangeEPKcmP15SSL3ClientState
00023388 t __ZN25NLConnectionSSL3DataLayer22ProcessServerHelloDoneEPKcmP15SSL3ClientState
00023470 t __ZN25NLConnectionSSL3DataLayer22ChangeServerCipherSpecEv
000235a0 t __ZN25NLConnectionSSL3DataLayer21ProcessServerFinishedEPKcPKhm
00023668 t __ZN25NLConnectionSSL3DataLayer19DecryptCipherBufferEv
00023ae4 t __ZN25NLConnectionSSL3DataLayer19ReceiveAllAvailableEh
00023d44 t __ZN25NLConnectionSSL3DataLayer11WaitForDataEm
00023db0 t __ZN25NLConnectionSSL3DataLayer19CountBytesAvailableERm
00023e04 t __ZN25NLConnectionSSL3DataLayer20EnsureBytesAvailableE15SSL3ContentTypem
00023ed8 t __ZN25NLConnectionSSL3DataLayer7ReceiveEPvmmPm
00023fec t __ZN25NLConnectionSSL3DataLayer23ReceiveHandshakeMessageEPPcPm
000241ac t __ZN25NLConnectionSSL3DataLayer10FinishOpenEPcS0_mPP12NLSSLSession
000247f0 t __ZN25NLConnectionSSL3DataLayer5CloseEb
00024890 t __ZN25NLConnectionTLS1DataLayer6P_hashEmPKhmS1_mPhmh
00024aac t __ZN25NLConnectionTLS1DataLayer3PRFEPKhmPKcS1_mPhm
00024b98 t __ZN25NLConnectionTLS1DataLayer19ComputeMasterSecretEPKh
00024c90 t __ZN25NLConnectionTLS1DataLayer10ComputeMacEPK19SSL3ConnectionStatePKhthPh
00024dbc t __ZN25NLConnectionTLS1DataLayer21ComputeFinishedDigestEhPKhmPPhPm
00024f68 t __ZN25NLConnectionTLS1DataLayer18ComputeKeyMaterialEv
000252d0 t __ZNK12NLSSLSession12GetSessionIDEPhS0_
00025308 t __ZN12NLSSLSession12SetSessionIDEmPKh
00025338 t __ZN12NLSSLSession17FSessionIDMatchesEmPKh
00025380 t __ZNK12NLSSLSession18GetCertificateDataEPmPPh
00025394 t __ZN12NLSSLSession18SetCertificateDataEmPKh
00025408 t __ZN12NLSSLSession18GetServerPublicKeyEv
00025464 t __ZN12NLSSLSession18SetServerPublicKeyEP8cssm_key
000254b4 t __ZN12NLSSLSession17GetSSL2CipherSpecEv
000254bc t __ZN12NLSSLSession17SetSSL2CipherSpecEPK14SSL2CipherSpec
000254c4 t __ZN12NLSSLSession17GetSSL3CipherSpecEv
000254cc t __ZN12NLSSLSession17SetSSL3CipherSpecEPK14SSL3CipherSpec
000254d4 t __ZNK12NLSSLSession16GetSSL2MasterKeyEv
000254dc t __ZN12NLSSLSession16SetSSL2MasterKeyEmPKh
0002552c t __ZN12NLSSLSession13GetSSL2KeyArgEPmPh
00025550 t __ZN12NLSSLSession13SetSSL2KeyArgEmPKh
00025570 t __ZNK12NLSSLSession19GetSSL3MasterSecretEv
00025578 t __ZN12NLSSLSession19SetSSL3MasterSecretEmPKh
000255c8 t __ZNK12NLSSLSession15GetSecurityInfoER14NLSecurityInfoPPK8__CFData
00025650 t __ZN12NLSSLSession29SetCertificateVerificationErrEm
00025658 t __ZN12NLSSLSession10SetAddressEP13NLAddressInet
000256bc t __ZN12NLSSLSessionD0Ev
0002578c t __ZN12NLSSLSessionD1Ev
0002585c t __ZN12NLSSLSessionC1Et
00025900 t __ZN17NLSSLSessionCache14ReleaseSessionEPK13__CFAllocatorPKv
00025908 t __ZN17NLSSLSessionCache10AddSessionEP12NLSSLSession
00025988 t __ZN17NLSSLSessionCache13RetainSessionEPK13__CFAllocatorPKv
000259c0 t __ZN17NLSSLSessionCache11FindSessionEP13NLAddressInet
00025acc t __ZN17NLSSLSessionCacheD0Ev
00025b68 t __ZN17NLSSLSessionCacheD1Ev
00025c08 t __ZN17NLSSLSessionCacheC1Ev
00025c90 t __ZN15NLConnectionFTPC1EP7NLProxyP15NLClientContextPK10__CFString
00025d20 t __ZN15NLConnectionFTP11WaitForDataEv
00025d58 t __ZN15NotifierFTPData6NotifyEP18OpaqueNLConnectionmlPv
00025d6c t __ZN15NLConnectionFTP20AcceptDataConnectionEv
00025d98 t __ZN15NLConnectionFTP14ReceiveAllDataER8NLBufferm
00025e38 t __ZN15NLConnectionFTP20AddToConnectionCacheEv
00025e3c t __ZN15NLConnectionFTP19CloseDataConnectionEv
00025eb8 t __ZN15NLConnectionFTP11SendAllDataER8NLBuffer
00025f64 t __ZN15NLConnectionFTP14SetCredentialsEPK10__CFStringS2_S2_
000260a8 t __ZN15NLConnectionFTPD1Ev
00026128 t __ZN15NLConnectionFTPD0Ev
000261b0 t __ZN15NLConnectionFTP21GetInitialCredentialsEPK10__CFStringS2_S2_PS2_S3_S3_
00026348 t __ZN15NLConnectionFTP14GetCredentialsEPPK10__CFStringS3_S3_
00026560 t __ZN15NLConnectionFTP20SendCommandWithReplyEPlPPK10__CFStringS3_z
00026790 t __ZN15NLConnectionFTP4QUITEv
00026804 t __ZN15NLConnectionFTP4NOOPEv
00026870 t __ZN15NLConnectionFTP4RESTEm
000268e0 t __ZN15NLConnectionFTP4PASVEPmPt
00026ae8 t __ZN15NLConnectionFTP4PORTEmt
00026b78 t __ZN15NLConnectionFTP18OpenDataConnectionEv
00026d8c t __ZN15NLConnectionFTP24SendCommandWithParameterEPK10__CFStringS2_PS2_
00026e00 t __ZN15NLConnectionFTP15ReceiveResponseEPlb
00026f04 t __ZN15NLConnectionFTP16ArbitraryCommandEPK10__CFStringbP8NLBufferPlPS2_
00027058 t __ZN15NLConnectionFTP7GetFileEPK10__CFStringP8NLBufferbbmPP17NLMessageResponse
00027244 t __ZN15NLConnectionFTP5LoginEPK10__CFStringS2_S2_
000275a8 t __ZN15NLConnectionFTP7ReceiveEPvmmPm
00027640 t __ZN20NLFTPConnectionCache10ClearCacheEv
000276d4 t __ZN20NLFTPConnectionCache23LimitConnectionsPerHostEP13NLAddressInett
00027798 t __ZN20NLFTPConnectionCache22GetConnection_InternalEP15NLClientContextP13NLAddressInettS3_tPK10__CFStringP10NLNotifierPP15NLConnectionFTP
00027988 t __ZN20NLFTPConnectionCache13GetConnectionEP15NLClientContextP13NLAddressInettS3_tPK10__CFStringP10NLNotifierPP15NLConnectionFTP
00027a40 t __ZN25NLFTPConnectionCacheEntryC1EP15NLConnectionFTP
00027aac t __ZN20NLFTPConnectionCache22AddConnection_InternalEP15NLConnectionFTP
00027be4 t __ZN20NLFTPConnectionCache13AddConnectionEP15NLConnectionFTP
00027ca8 t __ZN25NLFTPConnectionCacheEntryD1Ev
00027d28 t __ZN25NLFTPConnectionCacheEntryD0Ev
00027dac t __ZN20NLFTPConnectionCacheD0Ev
00027e5c t __ZN20NLFTPConnectionCacheD1Ev
00027f0c t __ZN20NLFTPConnectionCacheC1Ev
00027f68 t __ZN20NLFTPConnectionCache11CreateCacheEPPS_
00027fe8 t __ZN20NLMessageResponseFTPC1EP12NLConnectionP8NLBufferb
00028040 t __ZN20NLMessageResponseFTP19WaitForEndOfMessageEPPK10__CFString
00028190 t __ZN20NLMessageResponseFTP11ParseStatusEPKciPlPPK10__CFString
00028320 T _NLFTPSendCommandWithData
00028440 T _NLFTPSendCommand
00028568 T _NLFTPGetFile
000286ec T _NLFTPCreateConnection
00028980 t __ZN16NLConnectionHTTPC1EP7NLProxyP15NLClientContext
000289e0 t __ZN16NLConnectionHTTPD0Ev
00028a64 t __ZN16NLConnectionHTTP13SetPersistentEb
00028a6c t __ZNK16NLConnectionHTTP12IsPersistentEv
00028a74 t __ZN16NLConnectionHTTP20AddToConnectionCacheEv
00028b84 t __ZN16NLConnectionHTTPD1Ev
00028c00 t __ZN16NLConnectionHTTP16DiscardRemainingEv
00028c60 t __ZN16NLConnectionHTTP4OpenEP13NLAddressInettm
00028d58 t __ZN16NLConnectionHTTP9ReconnectEt
00028f48 T _NLCreateConnectionHTTP
000290bc t __ZN8NLCookie14ParseSetCookieEPKcPNS_22ParsedCookiePropertiesE
00029354 t __ZN8NLCookie15IsDomainSpoofedEbPKciS1_i
00029490 t __ZN8NLCookie23GetFullyQualifiedDomainEPK10__CFStringP16OpaqueNLNotifierPS2_
000295a0 t __Z20CStringToCFStringRefPPK10__CFStringPKcm
00029620 t __ZN8NLCookie16GetAsHeaderValueEP8StString
000296f8 t __ZN8NLCookie16ComputePathDepthEv
00029770 t __ZN8NLCookie20SetPathPropertyCFStrEPK10__CFString
00029820 t __ZN8NLCookie15SetPathPropertyERKNS_6TextRgE
00029894 t __ZN8NLCookie11SetPropertyEiRKNS_6TextRgE
00029a00 t __ZN8NLCookie19SetParsedPropertiesERKNS_22ParsedCookiePropertiesE
00029b20 t __ZN8NLCookie17SetStringPropertyER8NLStringPK10__CFString
00029bc4 T _NLParseCookie
0002a148 t __ZN8NLCookie10CopyDomainEv
0002a1ac t __ZN8NLCookie8CopyPathEv
0002a210 t __ZN8NLCookie9CopyValueEv
0002a274 t __ZN8NLCookie8CopyNameEv
0002a2dc t __ZN8NLCookieC1Ev
0002a3c8 t __ZN8NLCookieD1Ev
0002a490 t __ZN8NLCookieD0Ev
0002a55c t __ZN8NLCookie11MatchesPathEPKcmb
0002a780 t __ZN8NLCookie11ComparePathEPKct
0002a810 t __ZN8NLCookie13CompareDomainEPKc
0002a96c t __ZN8NLCookie10IsInDomainEPKc
0002aa54 t __ZN8NLCookie17HasMatchingDomainEPKc
0002ab58 T _NLSetCookie
0002af70 T _NLDeleteCookie
0002b2d4 T _NLGetCookiesAsHeader
0002b630 T _NLDisposeCookieIterator
0002b69c t __ZN16NLCookieIteratorD0Ev
0002b75c t __ZN16NLCookieIteratorD1Ev
0002b81c t __ZN16NLCookieIteratorC1ER11NLCookieJar
0002b8f4 T _NLCreateCookieIterator
0002b9a0 t __ZN16NLCookieIterator8FindNextER17StCookieJarViewer
0002bbd8 T _NLGetNextCookie
0002bdf0 t __ZN11NLCookieJar12CloseServiceEv
0002be40 t __ZN11NLCookieJar12GetGlobalJarEv
0002be5c t __ZN11NLCookieJar5FInitEv
0002be9c t __ZN11NLCookieJar16FirstExactDomainEPKc
0002bf10 t __ZN11NLCookieJar19FirstMatchingDomainEPKc
0002bfd0 t __ZN11NLCookieJarC1Ev
0002c044 t __ZN11NLCookieJar9CreateJarEPPS_
0002c0fc t __ZN11NLCookieJar11OpenServiceEv
0002c11c t __ZN11NLCookieJar13FindNextExactEPlPKcS2_S2_PP8NLCookie
0002c234 t __ZN11NLCookieJar10FindCookieER8NLCookie
0002c2d4 t __ZN11NLCookieJar6RemoveER8NLCookie
0002c350 t __ZN11NLCookieJar18RemoveStaleCookiesEl
0002c430 t __ZN11NLCookieJar20RemoveExpiredCookiesEv
0002c500 t __ZN11NLCookieJar32RemoveLRUCookieForDomainIfNeededEPKc
0002c5e0 t __ZN11NLCookieJar3AddER8NLCookie
0002c760 t __ZN11NLCookieJar16FindNextMatchingE19NLCookieDomainMatchPlPKcS3_S3_PP8NLCookie
0002c90c t __ZN20NLDataDecoderChunked9CacheDataEmPKc
0002c9bc t __ZN20NLDataDecoderChunked7GetLineEmPKcPmPPcS2_
0002caf4 t __ZN20NLDataDecoderChunked16ComputeChunkSizeEmPKc
0002cc50 t __ZN20NLDataDecoderChunked14DecodeToBufferEP8NLBuffermPKcPm
0002cdf0 t __ZN17NLDataDecoderGzip10InitializeEv
0002ce64 t __ZN17NLDataDecoderGzip9TerminateEv
0002ce98 t __ZN17NLDataDecoderGzip16CopyDataToBufferEP8NLBuffermPKcPm
0002cf30 t __ZN17NLDataDecoderGzip11CheckHeaderEv
0002d290 t __ZN17NLDataDecoderGzip15HandleBadHeaderEP8NLBufferPm
0002d3bc t __ZN17NLDataDecoderGzip14DecodeToBufferEP8NLBuffermPKcPm
0002d694 t __ZN21NLHTTPConnectionCache10ClearCacheEv
0002d724 t __ZN21NLHTTPConnectionCache22GetConnection_InternalEP15NLClientContextP13NLAddressInettP7NLProxyP10NLNotifierPP12NLConnection
0002d9c0 t __ZN21NLHTTPConnectionCache13GetConnectionEP15NLClientContextP13NLAddressInettP7NLProxyP10NLNotifierPP12NLConnection
0002da38 t __ZN26NLHTTPConnectionCacheEntryC1EP16NLConnectionHTTP
0002dad8 t __ZN21NLHTTPConnectionCache22AddConnection_InternalEP16NLConnectionHTTP
0002dbe8 t __ZN21NLHTTPConnectionCache13AddConnectionEP16NLConnectionHTTP
0002dc70 t __ZN26NLHTTPConnectionCacheEntryD1Ev
0002dce8 t __ZN26NLHTTPConnectionCacheEntryD0Ev
0002dd64 t __ZN21NLHTTPConnectionCacheD0Ev
0002de1c t __ZN21NLHTTPConnectionCacheD1Ev
0002decc t __ZN21NLHTTPConnectionCacheC1Ev
0002df28 t __ZN21NLHTTPConnectionCache11CreateCacheEPPS_
0002dfa0 t __ZN20NLMessageRequestHTTP15GetMethodStringE12NLHTTPMethodR8StString
0002dff8 t __ZN11Redirection3SetEPKcRPS_
0002e078 t __ZN20NLMessageRequestHTTPC1ERK11NLClassInfo
0002e0e4 t __ZN20NLMessageRequestHTTP9ResetBodyEv
0002e1ec t __ZN20NLMessageRequestHTTP7SetPathEPKc
0002e2ac t __ZN20NLMessageRequestHTTP17InRedirectionLoopEPKc
0002e318 t __ZN20NLMessageRequestHTTP21AuthenticateOnRequestER12NLConnection
0002e480 t __ZN20NLMessageRequestHTTP16SetMethodAndPathE12NLHTTPMethodPKc
0002e574 t __ZN20NLMessageRequestHTTP26ProcessAuthResponseHeadersER17NLMessageResponselb
0002e704 t __ZN20NLMessageRequestHTTP19ChangeMethodAndPathE12NLHTTPMethodPK10__CFString
0002e7dc t __ZN20NLMessageRequestHTTPD1Ev
0002e8f0 t __ZN20NLMessageRequestHTTPD0Ev
0002ea0c t __ZN20NLMessageRequestHTTP20HandleAuthenticationER17NLMessageResponse
0002ecdc t __ZN11RedirectionC1Ev
0002ed0c t __ZN20NLMessageRequestHTTP14HandleRedirectElR17NLMessageResponse
0002f048 t __ZN11RedirectionD1Ev
0002f0c8 t __ZN11RedirectionD0Ev
0002f14c t __ZN20NLMessageRequestHTTP13AppendCookiesER11NLCookieJarPKcbS3_b
0002f398 t __ZN20NLMessageRequestHTTP27AddContentLengthAndCRLFCRLFEv
0002f52c t __ZN20NLMessageRequestHTTP13SetConnectionER12NLConnection
0002fa34 t __ZN20NLMessageRequestHTTP7HasBodyEv
0002fad8 t __ZN20NLMessageRequestHTTP11SendHeadersER12NLConnection
0002fbc8 t __ZN20NLMessageRequestHTTP8SendBodyER12NLConnection
0002fda8 t __ZN21NLMessageResponseHTTPC1EP12NLConnectionP8NLBufferb
0002fe20 t __ZN21NLMessageResponseHTTP15ProcessBodyDataEPKcm
0002ff20 t __ZN21NLMessageResponseHTTP15ReceiveBodyDataEmmPm
00030094 t __ZN21NLMessageResponseHTTP16DiscardRemainingEv
000300dc t __ZN21NLMessageResponseHTTPD1Ev
000301d0 t __ZN21NLMessageResponseHTTPD0Ev
000302d0 t __ZN20StCookieNotificationC1Ev
00030318 t __ZN20StCookieNotificationD1Ev
000303bc t __ZN20StCookieNotificationD0Ev
00030464 t __ZN21NLMessageResponseHTTP11ParseStatusEPKciPlPPK10__CFString
000305d4 t __ZN21NLMessageResponseHTTP22CheckIfHeadersExpectedEPKcm
00030670 t __ZN21NLMessageResponseHTTP15AllocateDecoderEv
00030894 t __ZN21NLMessageResponseHTTP23DetermineTransferLengthEv
00030a4c t __ZN21NLMessageResponseHTTP16CheckHTTPVersionEv
00030b24 t __ZN21NLMessageResponseHTTP17ParseReplyHeadersEv
00030b68 t __ZN20StCookieNotification6RejectEP12NLConnectionRKN8NLCookie22ParsedCookiePropertiesEb
00030c58 t __ZN21NLMessageResponseHTTP15HandleSetCookieER20NLMessageRequestHTTP
000312f0 t __Z27GetAllowableNumberOfRetriesR20NLMessageRequestHTTPR12NLConnection
00031388 t __Z11HandleErrorlR12NLConnectionR20NLMessageRequestHTTPRhR18NLHTTPRequestState
00031430 T _NLCreateMessageHTTP
00031650 T _NLHandleHTTPTransaction
00031b40 t __Z27GetHTTPMethodFromMsgRequestR20NLMessageRequestHTTPP12NLHTTPMethodP8StString
00031b9c t __Z33GetUrlFromConnectionAndMsgRequestR12NLConnectionR20NLMessageRequestHTTPPPK7__CFURLP8StString
00031ce4 t __Z32GetHostNameFromConnectionOrProxyP12NLConnectionP7NLProxyPPK10__CFString
00031d28 t __Z15GetUrlFromProxyP7NLProxyPPK7__CFURLP8StString
00031eb8 t __ZN18NLSecureAllocation5ResetEv
00031f64 t __ZN18NLSecureAllocation19CreateCipherContextEv
0003201c t __ZN18NLSecureAllocation7SetDataEPKvm
000320bc t __ZN18NLSecureAllocation4InitEv
00032108 t __ZN18NLSecureAllocationD0Ev
00032170 t __ZN18NLSecureAllocationD1Ev
000321d0 t __ZN18NLSecureAllocationC1Ev
0003224c t __Z19NLSecureMemNewAllocPP17OpaqueNLSecureMem
000322c0 t __Z18NLSecureMemSetDataP17OpaqueNLSecureMemPKvm
00032330 t __Z23NLSecureMemReleaseAllocP17OpaqueNLSecureMem
000323a8 t __Z18NLSecureMemGetDataP17OpaqueNLSecureMemPvm
00032450 t __Z22NLSecureMemGetDataSizeP17OpaqueNLSecureMem
000324a0 T _NLGetCSPModuleFromSecKeychainItem
000324f8 T _NLFreeModuleAllocatedMemory
00032548 t __Z19NLConvertCSSMReturnl
0003257c t __Z10CSSMMallocmPv
00032580 t __Z8CSSMFreePvS_
00032584 t __Z11CSSMReallocPvmS_
00032588 t __Z10CSSMCallocmmPv
00032590 t __Z14InitCSSMModulePK9cssm_guidmPm
00032658 T _NLGetDLModule
000326b8 T _NLGetCLModule
00032718 T _NLGetCSPDLModule
00032778 T _NLGetCSPModule
000327d8 t __Z19TerminateCSSMModulemPK9cssm_guid
00032850 T _NLEncodeBase64
00032a08 T _NLDecodeBase64
00032b20 T _NLDisposeDigest
00032b3c t __ZN8NLDigest5CleanEv
00032bc8 t __ZN8NLDigest7AddDataEPK10__CFStringm
00032c98 t __ZN8NLDigest13GetDigestDataEv
00032cdc t __ZN8NLDigest17GetDigestDataSizeEv
00032d20 T _NLDisposeHmac
00032d3c t __ZN6NLHmac7AddDataEPKvm
00032d68 t __ZN6NLHmac6FinishEv
00032e54 t __ZN6NLHmac10GetMacDataEv
00032e68 t __ZN6NLHmac14GetMacDataSizeEv
00032e7c T _NLFindField
00032ef4 t __Z15NLTerminateCSSMv
00033034 t __Z10NLInitCSSMv
000330fc t __ZN8NLDigest7AddDataEPKvm
000331d8 t __ZN8NLDigest6FinishEv
000332a8 T _NLDeleteContext
00033328 T _NLCreateAsymmetricContext
000333b4 T _NLEncryptWithContext
00033484 T _NLBeginEncryptWithContext
000334f4 T _NLEncryptMoreWithContext
000335a8 T _NLEndEncryptWithContext
00033654 T _NLDecryptWithContext
00033738 T _NLBeginDecryptWithContext
000337a8 T _NLDecryptMoreWithContext
0003385c T _NLEndDecryptWithContext
00033914 T _NLWrapKey
00033984 T _NLUnwrapKey
00033a04 t __ZN6NLHmacD0Ev
00033ae4 T _NLCreateSymmetricKey
00033b8c T _NLCreatePublicRSAKey
00033c3c T _NLGetKeyFromCertificate
00033cf4 T _NLGetCertificateFields
00033db4 T _NLFreeFields
00033e68 t __ZN8NLDigestD1Ev
00033f00 t __ZN8NLDigestC1Ev
00033f74 t __ZN6NLHmac4InitEmPKhm
00034080 T _NLCreateDigest
000340bc t __ZN8NLDigestD0Ev
00034154 t __ZN6NLHmacC1Ev
00034194 T _NLCreateHmac
000341d8 t __ZN6NLHmacD1Ev
000342b4 T _NLGetRandomBytes
000343e0 t __ZN8NLDigest4InitEm
00034514 T _NLDigestData
000345f4 t __ZN6NLHmac6SetKeyEmPKhm
00034704 T _NLGenerateSymmetricKeyWithAttr
00034874 T _NLGenerateSymmetricKey
00034880 T _NLDeriveSymmetricKey
00034a00 T _NLFreeKey
00034ac0 T _NLCreateSymmetricContext
00034bb4 T _NLDecryptAsymmetric
00034c9c T _NLEncryptAsymmetric
00034d98 T _NLEncryptRSA
00034dc8 T _NLVerifySignatureRSA
00034f74 T _NLVerifyData
00035114 T _NLSignData
000352e0 T _NLCreateDigest_
00035360 T _NLDigestAddData
00035384 T _NLDigestFinish
000353a8 T _NLDigestGetDigestData
000353c4 T _NLDigestGetDigestDataSize
000353e0 T _NLDisposeDigest_
00035414 T _NLCreateHmac_
000354a4 T _NLHmacAddData
000354c8 T _NLHmacFinish
000354ec T _NLHmacGetMacData
00035508 T _NLHmacGetMacDataSize
00035524 T _NLDisposeHmac_
00035558 t _FOIDEqual
000355a0 t _FFieldEqual
00035650 t _SecKeychainFindCertificate
00035760 t _SecCertificateCopyIdentity
00035990 t _ASNCreatePrimitiveObject
00035a34 t _ASNCreatePrimitiveObjectBuffer
00035ac4 t _ASNCreateConstructedObject
00035b98 t _ASNGetObjectData
00035c14 t _ASNGetObjectContentData
00035c8c t _ASNGetSubObject
00035cd0 t _ASNGetSubObjectCount
00035cf8 t _ASNChangeObjectTag
00035d30 t _ASNPrimitiveToObject
00035dd0 t _ASNCreatePrimitive
00035e4c t _ASNAnyToObject
00035e84 t _ASNSetOrSequenceToObject
00035fa0 t _ASNRSAPublicKeyToObject
0003606c t _ASNCreateRSAPublicKey
000360d8 t _ASNCreateExtendedCertificateOrCertificate
0003615c t _ASNExtendedCertificateOrCertificateToObject
000361c0 t __Z33OssCertificateListToObjectWrapperPvPP9ASNObject
000361c4 t __Z50OssExtendedCertificateOrCertificateToObjectWrapperPvPP9ASNObject
000361c8 t _ASNExtendedCertificatesAndCertificatesToObject
0003621c t _ASNCreateExtendedCertificatesAndCertificates
000362c0 t _ASNCertificateListsToObject
00036330 t _ASNIssuerAndSerialNumberToObject
000363f4 t _ASNCreateIssuerAndSerialNumber
00036454 t _ASNDigestInfoToObject
00036518 t _ASNCreateDigestInfo
00036578 t _ASNRecipientInfoToObject
00036690 t __Z31OssRecipientInfoToObjectWrapperPvPP9ASNObject
00036694 t _ASNSignerInfoToObject
000368b0 t __Z28OssSignerInfoToObjectWrapperPvPP9ASNObject
000368b4 t _ASNCreateSignerInfo
0003693c t _ASNSignerInfosToObject
00036994 t _ASNCreateSignerInfos
00036a38 t _ASNCreateSignedData
00036ae8 t _ASNCreateRecipientInfo
00036b58 t _ASNRecipientInfosToObject
00036bb0 t _ASNCreateRecipientInfos
00036c54 t _ASNEncryptedContentInfoToObject
00036d6c t _ASNCreateEncryptedContentInfo
00036dd4 t _ASNEnvelopedDataToObject
00036ec8 t _ASNCreateEnvelopedData
00036f30 t _ASNSignedAndEnvelopedDataToObject
0003714c t _ASNEncryptedDataToObject
0003721c t _ASNCreateEncryptedData
0003727c t _ASNContentInfoToObject
00037384 t _ASNDigestedDataToObject
0003749c t _ASNSignedDataToObject
00037690 t _ASNCreateContentInfoCore
0003784c t _ASNCreateContentInfo
00037860 t _ASNEncryptedPrivateKeyToObject
00037924 t _ASNCreateEncryptedPrivateKey
00037990 t __Z29OssContentInfoToObjectWrapperPvPP9ASNObject
00037994 t _ASNPKCS12PbeParamsToObject
00037a58 t _ASNCreatePKCS12PbeParams
00037ab8 t _ASNCertBagToObject
00037bf4 t _ASNCreateCertBag
00037c4c t _ASNSafeBagToObject
00037e2c t __Z25OssSafeBagToObjectWrapperPvPP9ASNObject
00037e30 t _ASNCreateSafeBag
00037eb8 t _ASNSafeContentsToObject
00037ee8 t _ASNCreateSafeContents
00037f8c t _ASNAuthenticatedSafeToObject
00037fbc t _ASNCreateAuthenticatedSafe
00038060 t _ASNMacDataToObject
00038144 t _ASNCreateMacData
000381ac t _ASNPFXToObject
00038288 t _ASNCreatePFX
000382f0 t __Z32OssAttributeValueToObjectWrapperPvPP9ASNObject
000382f4 t _ASNAttributeTypeAndValueToObject
000383b8 t __Z39OssAttributeTypeAndValueToObjectWrapperPvPP9ASNObject
000383bc t _ASNAttributeToObject
0003849c t __Z27OssAttributeToObjectWrapperPvPP9ASNObject
000384a0 t _ASNCreateAttribute
0003854c t _ASNAttributesToObject
00038660 t _ASNCreateAttributes
0003870c t _ASNRDNSequenceToObject
00038744 t __Z43OssRelativeDistinguishedNameToObjectWrapperPvPP9ASNObject
00038780 t _ASNAlgorithmIdentifierToObject
00038844 t __Z37OssAlgorithmIdentifierToObjectWrapperPvPP9ASNObject
00038848 t _ASNCreateAlgorithmIdentifier
000388a8 t _ASNAlgorithmIdentifiersToObject
00038900 t _ASNCreateAlgorithmIdentifiers
000389a4 t _ASNCertificateToObject
000389e4 t _ASNCreateCertificate
00038a74 t _ASNCertificatesToObject
00038acc t _ASNCertificateListToObject
00038af8 t __Z29OssCertificateToObjectWrapperPvPP9ASNObject
00038b44 t __Z25OssDecodePrimitiveContentPK8__CFData7CFRangeP19ASNPrimitiveContent
00038bac t _ASNReleaseObject
00038c68 t _ASNRetainObject
00038c78 t __Z18OssDecodeASNObjectPK8__CFData7CFRangePP9ASNObject
00038f48 t _ASNDecodeASNObject
00038f98 t _ASNDecodeASNObjectBuffer
00039014 t __Z27OssDecodeConstructedContentPK8__CFData7CFRangehP21ASNConstructedContentPm
00039204 t _ASNClearObjectEncodingCache
0003929c t __Z16OutputASN1LengthmP8__CFData
00039368 t __Z11CbASNObjectP9ASNObject
00039470 t __Z13OutputASN1TagP6ASNTagP8__CFData
00039598 t __Z15OutputASNObjectP9ASNObjectP8__CFData
000396d4 t _ASNEncodeASNObject
00039750 t __Z13FValueFromOIDP10OIDMappingmPK9cssm_dataPm
000397d0 t _FDigestAlgorithmFromOID
00039838 t _FAsymmetricEncryptionAlgorithmFromOID
000398a0 t _FDigitalSignatureAlgorithmFromOID
00039908 t _FSymmetricEncryptionAlgorithmFromOID
0003997c t _FSignerAttributeFromOID
000399d4 t _FContentTypeFromOID
00039a2c t _FBagTypeFromOID
00039a84 t _FX509ExtensionFromOID
00039adc t _FAuthInfoAccessMethodFromOID
00039b34 t _FOtherNameTypeFromOID
00039b8c t _FOIDFromDigestAlgorithm
00039c34 t _FOIDFromAsymmetricEncryptionAlgorithm
00039cdc t _FOIDFromSymmetricEncryptionAlgorithm
00039d88 t _FOIDFromSignerAttribute
00039df0 t _FOIDFromContentType
00039e58 t _FOIDFromBagType
00039ec0 t _ASNObjectToPrimitive
0003a0d0 t _ASNReleasePrimitive
0003a11c t _ASNObjectToAny
0003a154 t _ASNReleaseAny
0003a160 t _ASNObjectToSetOrSequence
0003a308 t _ASNReleaseSetOrSequence
0003a3b4 t __Z25ASNReleaseRC2CBCParameterP18ASNRC2CBCParameter
0003a400 t __Z26ASNObjectToRC2CBCParameterP9ASNObjectPP18ASNRC2CBCParameter
0003a4e0 t _ASNReleaseRSAPublicKey
0003a540 t _ASNReleaseRSAPrivateKey
0003a5c4 t _ASNObjectToRSAPrivateKey
0003a7fc t _ASNReleaseExtendedCertificateOrCertificate
0003a860 t _ASNObjectToExtendedCertificateOrCertificate
0003a930 t __Z30OssParseCertificateListWrapperP9ASNObjectPPv
0003a934 t __Z29ReleaseCertificateListWrapperPv
0003a938 t __Z47OssParseExtendedCertificateOrCertificateWrapperP9ASNObjectPPv
0003a93c t __Z46ReleaseExtendedCertificateOrCertificateWrapperPv
0003a940 t _ASNReleaseExtendedCertificatesAndCertificates
0003a9a0 t _ASNObjectToExtendedCertificatesAndCertificates
0003aa44 t _ASNReleaseIssuerAndSerialNumber
0003aa98 t _ASNObjectToIssuerAndSerialNumber
0003ab74 t _ASNReleaseRecipientInfo
0003abd0 t __Z27ReleaseRecipientInfoWrapperPv
0003abd4 t _ASNReleaseDigestInfo
0003ac28 t _ASNObjectToDigestInfo
0003ad00 t _ASNObjectToRecipientInfo
0003ae50 t __Z28OssParseRecipientInfoWrapperP9ASNObjectPPv
0003ae54 t _ASNReleaseSignerInfo
0003aec8 t _ASNObjectToSignerInfo
0003b180 t __Z25OssParseSignerInfoWrapperP9ASNObjectPPv
0003b184 t __Z24ReleaseSignerInfoWrapperPv
0003b188 t _ASNReleaseSignerInfos
0003b1e8 t _ASNObjectToSignerInfos
0003b290 t _ASNReleaseCertificateLists
0003b2f0 t _ASNObjectToCertificateLists
0003b398 t _ASNReleaseRecipientInfos
0003b3f8 t _ASNObjectToRecipientInfos
0003b4a4 t _ASNReleaseEncryptedContentInfo
0003b4f8 t _ASNObjectToEncryptedContentInfo
0003b67c t _ASNReleaseEnvelopedData
0003b6d0 t _ASNObjectToEnvelopedData
0003b7fc t _ASNReleaseSignedAndEnvelopedData
0003b888 t _ASNObjectToSignedAndEnvelopedData
0003bb68 t _ASNReleaseEncryptedData
0003bbb4 t _ASNObjectToEncryptedData
0003bc9c t _ASNReleaseContentInfo
0003bd80 t _ASNReleaseDigestedData
0003bddc t _ASNReleaseSignedData
0003be60 t _ASNObjectToDigestedData
0003bfb4 t _ASNObjectToContentInfoCore
0003c218 t _ASNObjectToContentInfo
0003c224 t _ASNObjectToSignedData
0003c4d0 t _ASNReleasePrivateKeyInfo
0003c52c t _ASNObjectToPrivateKeyInfo
0003c67c t _ASNReleaseEncryptedPrivateKey
0003c6d0 t _ASNObjectToEncryptedPrivateKey
0003c7a0 t _ASNReleaseSubjectPublicKeyInfo
0003c7f4 t _ASNObjectToSubjectPublicKeyInfo
0003c8d0 t __Z26OssParseContentInfoWrapperP9ASNObjectPPv
0003c8d4 t __Z25ReleaseContentInfoWrapperPv
0003c8d8 t _ASNReleasePKCS12PbeParams
0003c924 t _ASNObjectToPKCS12PbeParams
0003c9e8 t _ASNReleaseCertBag
0003ca34 t _ASNObjectToCertBag
0003cba0 t _ASNReleaseSafeBag
0003cc2c t _ASNObjectToSafeBag
0003ce00 t __Z22OssParseSafeBagWrapperP9ASNObjectPPv
0003ce04 t __Z21ReleaseSafeBagWrapperPv
0003ce08 t _ASNReleaseSafeContents
0003ce68 t _ASNObjectToSafeContents
0003cf08 t _ASNReleaseAuthenticatedSafe
0003cf68 t _ASNObjectToAuthenticatedSafe
0003d008 t _ASNReleaseMacData
0003d05c t _ASNObjectToMacData
0003d180 t _ASNReleasePFX
0003d1d4 t _ASNObjectToPFX
0003d2e0 t _ASNReleaseRelativeDistinguishedName
0003d340 t _ASNObjectToRelativeDistinguishedName
0003d3f0 t __Z40OssParseRelativeDistinguishedNameWrapperP9ASNObjectPPv
0003d3f4 t __Z39ReleaseRelativeDistinguishedNameWrapperPv
0003d3f8 t _ASNReleaseAttribute
0003d454 t _ASNObjectToAttribute
0003d54c t __Z24OssParseAttributeWrapperP9ASNObjectPPv
0003d550 t __Z23ReleaseAttributeWrapperPv
0003d554 t _ASNReleaseAttributes
0003d5c4 t _ASNObjectToAttributes
0003d67c t _ASNReleaseAttributeTypeAndValue
0003d6d0 t _ASNObjectToAttributeTypeAndValue
0003d7ac t __Z36OssParseAttributeTypeAndValueWrapperP9ASNObjectPPv
0003d7b0 t __Z35ReleaseAttributeTypeAndValueWrapperPv
0003d7b4 t _ASNReleaseRDNSequence
0003d824 t _ASNObjectToRDNSequence
0003d8d0 t __Z18OssParseOIDWrapperP9ASNObjectPPv
0003d8e0 t __Z17ReleaseOIDWrapperPv
0003d8e4 t _ASNReleasePolicyInformation
0003d930 t _ASNObjectToPolicyInformation
0003d9d8 t __Z32OssParsePolicyInformationWrapperP9ASNObjectPPv
0003d9dc t __Z31ReleasePolicyInformationWrapperPv
0003d9e0 t _ASNReleaseAlgorithmIdentifier
0003da34 t _ASNObjectToAlgorithmIdentifier
0003db30 t __Z34OssParseAlgorithmIdentifierWrapperP9ASNObjectPPv
0003db34 t __Z33ReleaseAlgorithmIdentifierWrapperPv
0003db38 t _ASNReleaseAlgorithmIdentifiers
0003db98 t _ASNObjectToAlgorithmIdentifiers
0003dc4c t _ASNReleaseOtherName
0003dca0 t _ASNObjectToOtherName
0003dde0 t _ASNReleaseGeneralName
0003dea8 t _ASNReleaseAccessDescription
0003defc t __Z31ReleaseAccessDescriptionWrapperPv
0003df00 t _ASNObjectToGeneralName
0003e170 t _ASNObjectToAccessDescription
0003e24c t __Z32OssParseAccessDescriptionWrapperP9ASNObjectPPv
0003e250 t __Z26OssParseGeneralNameWrapperP9ASNObjectPPv
0003e254 t __Z25ReleaseGeneralNameWrapperPv
0003e258 t _ASNReleaseGeneralNames
0003e2b8 t _ASNObjectToGeneralNames
0003e35c t _ASNReleaseAuthorityInfoAccessSyntax
0003e3bc t _ASNObjectToAuthorityInfoAccessSyntax
0003e45c t _ASNReleaseSubjectKeyID
0003e4a8 t _ASNObjectToSubjectKeyID
0003e524 t _ASNReleaseAuthorityKeyID
0003e570 t _ASNObjectToAuthorityKeyID
0003e6d8 t _ASNReleaseCertificatePolicies
0003e738 t _ASNObjectToCertificatePolicies
0003e7d0 t _ASNReleaseExtendedKeyUsage
0003e830 t _ASNObjectToExtendedKeyUsage
0003e8dc t _ASNReleaseCRLDistributionPoint
0003e958 t _ASNObjectToCRLDistributionPoint
0003ebe4 t __Z35OssParseCRLDistributionPointWrapperP9ASNObjectPPv
0003ebe8 t __Z34ReleaseCRLDistributionPointWrapperPv
0003ebec t _ASNReleaseCRLDistributionPoints
0003ec4c t _ASNObjectToCRLDistributionPoints
0003ecec t _ASNReleaseX509Extensions
0003ed4c t _ASNReleaseRevokedCertificate
0003eda0 t __Z32ReleaseRevokedCertificateWrapperPv
0003eda4 t _ASNObjectToX509Extensions
0003ee44 t _ASNObjectToRevokedCertificate
0003ef5c t __Z33OssParseRevokedCertificateWrapperP9ASNObjectPPv
0003ef60 t _ASNReleaseCertificates
0003efc0 t _ASNObjectToCertificates
0003f064 t _ASNReleaseRevokedCertificates
0003f0c4 t _ASNObjectToRevokedCertificates
0003f164 t _ASNReleaseTBSCertList
0003f1f0 t _ASNObjectToTBSCertList
0003f4a8 t _ASNReleaseCertificateList
0003f50c t _ASNObjectToCertificateList
0003f610 t _ASNNormalizeRDNSequence
0003f85c t _ASNObjectToPolicyConstraints
0003f968 t _ASNObjectToBasicConstraints
0003faa8 t _ASNObjectToInhibitAnyPolicy
0003fb20 t _ASNObjectToValidity
0003fbe4 t _ASNReleaseTBSCertificate
0003fc80 t _ASNReleaseCertificate
0003fce4 t __Z25ReleaseCertificateWrapperPv
0003fce8 t _ASNObjectToTBSCertificate
0003ffe0 t _ASNObjectToCertificate
000400e4 t __Z26OssParseCertificateWrapperP9ASNObjectPPv
000400e8 t _ASNObjectToKeyUsage
00040204 t _ASNReleaseX509Extension
00040320 t _ASNObjectToX509Extension
0004068c t __Z28OssParseX509ExtensionWrapperP9ASNObjectPPv
00040690 t __Z27ReleaseX509ExtensionWrapperPv
000406a0 t __Z23ReleaseNLDigestCallBackPK13__CFAllocatorPKv
000406bc t __Z25OssCreateDigestDictionaryP23ASNAlgorithmIdentifiersPK8__CFDataPPK14__CFDictionary
00040854 t __Z17FCertificateMatchP24ASNIssuerAndSerialNumberP19OpaqueDICertificate
000409d8 t __Z16FFindCertificateP24ASNIssuerAndSerialNumberPK9__CFArrayPP19OpaqueDICertificate
00040ba8 T _ASNRetainSignatureSummary
00040bcc t __Z33OssBuildSimpleAlgorithmIdentifierP9cssm_dataPP22ASNAlgorithmIdentifier
00040c84 t __Z39OssBuildSimpleDigestAlgorithmIdentifiermPP22ASNAlgorithmIdentifier
00040ccc t __Z53OssBuildSimpleAsymmetricEncryptionAlgorithmIdentifiermPP22ASNAlgorithmIdentifier
00040d14 t __Z23OssBuildSignerAttribute16SIGNER_ATTRIBUTEP9ASNObjectPP12ASNAttribute
00040db0 t __Z21OssBuildMessageDigestPKhmmPP19ASNPrimitiveContent
00040e7c t __Z30OssBuildMessageDigestAttributePKhmmPP12ASNAttribute
00040f48 t __Z28OssBuildContentTypeAttributemPP12ASNAttribute
00041030 t __Z28OssBuildSigningTimeAttributedPP12ASNAttribute
000410ac t __Z31OssBuildAuthenticatedAttributesPKhmmmdPP13ASNAttributes
00041180 t __Z24OssBuildCertificateChainPK9__CFArrayPP38ASNExtendedCertificatesAndCertificates
000412d4 t __Z44OssBuildIssuerAndSerialNumberFromCertificateP23OpaqueSecCertificateRefPP24ASNIssuerAndSerialNumber
00041430 t __Z18OssBuildSignerInfoP23OpaqueSecCertificateRefPKhmmdPP13ASNSignerInfo
00041758 t __Z21OssBuildRecipientInfoP23OpaqueSecCertificateRefPK8cssm_keyPP16ASNRecipientInfo
00041968 t __Z28OssBuildEncryptedContentInfomPKhmP8cssm_keyPP23ASNEncryptedContentInfo
00041c10 t __Z32OssGetContentEncryptionAlgorithmP23ASNEncryptedContentInfoPm
00041cdc t __Z33OssGetContentEncryptionInitVectorP23ASNEncryptedContentInfoPPKhPm
00041d9c t __Z23OssExtractEncryptionKeyP16ASNRecipientInfomPmP8cssm_keyPP23OpaqueSecCertificateRef
00042054 t __Z26OssExtractEncryptedContentP23ASNEncryptedContentInfomPK8cssm_keyPmPPK8__CFData
00042180 T _ASNReleaseSignatureSummary
000421f4 t __Z33OssCopyCertificatesFromSignedDataP13ASNSignedDataPPK9__CFArray
0004232c T _ASNSignData
00042590 T _ASNRetainEncryptionSummary
000425b4 T _ASNEnvelopeData
000427e8 T _ASNExtractContentInfoData
000428d0 T _ASNCreateContentInfoData
0004296c T _ASNReleaseEncryptionSummary
000429d0 t __Z18OssCreateSignatureP13ASNSignerInfomPK14__CFDictionaryPK9__CFArrayPP19ASNSignatureSummary
00042ee4 T _ASNExtractSignedData
00043108 T _ASNExtractEnvelopedData
00043330 t __Z21ReplicateToFillBufferPKhmPhm
000433a0 t __Z23DerivePKCS12KeyMaterialmPK10__CFStringPK8__CFDatammmPS4_
0004392c t __Z16ComputePKCS12MacmPK10__CFStringPPK8__CFDatamPKhmP6NLHmac
00043a58 t __Z24EncryptDecryptPKCS12DatahP22ASNAlgorithmIdentifierPK10__CFStringPK8__CFDataPS6_
00043e40 t __Z27CopyObjectsFromSafeContentsP15ASNSafeContentsPK10__CFStringP9__CFArrayS5_
00044164 t __Z24BuildAlgorithmIdentifierPK9cssm_dataPP22ASNAlgorithmIdentifier
00044278 t __Z24BuildLocalKeyIDAttributehPP13ASNAttributes
0004437c t __Z20BuildSafeBagWithCertP19OpaqueDICertificatePhPP10ASNSafeBag
0004448c t __Z32PKCS12CopyAllCertificatesAndKeysP6ASNPFXPK10__CFStringPPK9__CFArrayS7_
00044980 t __Z34PKCS12CreateWithCertificatesAndKeyPK9__CFArrayP15OpaqueSecKeyRefPK10__CFStringhPP6ASNPFX
00045310 t __Z20GetDataFromPrimitiveP19ASNPrimitiveContentPPKhPm
0004535c t __Z21ASNDuplicatePrimitiveP19ASNPrimitiveContentPS0_
000453c4 t __Z23ASNObjectToIntegerValueP9ASNObjectPl
0004547c t __Z23ASNIntegerValueToObjectlPP9ASNObject
00045510 t __Z9FTagMatchP9ASNObject11ASNTagClassm
00045534 t __Z23ASNAbsoluteTimeToObjectdPP9ASNObject
00045748 t __Z23ASNObjectToAbsoluteTimeP9ASNObjectPd
0004599c t __Z17ASNObjectToStringP9ASNObjectmPPK10__CFString
00045a9c t __ZN13DICertificate15CopyDisplayNameEP14ASNRDNSequence
00045ba4 t __ZN13DICertificate14FEnsureSecCertEv
00045c28 t __ZN13DICertificate15CopyCertificateEv
00045c68 t __ZN13DICertificate23CopyKeychainDescriptionEv
00045d84 t __ZN13DICertificate14FEnsureASNCertEv
00045e00 t __ZN13DICertificate21FTimeIsWithinValidityEdPh
00045e9c t __ZN13DICertificate22FGetSignatureAlgorithmEPm
00045f24 t __ZN13DICertificate22CopyCriticalExtensionsEv
00045fc8 t __ZN13DICertificate13FGetExtensionEmPP16ASNX509Extension
00046074 t __ZN13DICertificate25FEnsureDistributionPointsEv
000460e8 t __ZN13DICertificate28CopyHttpCrlDistributionPointEm
000461e8 t __ZN13DICertificate28GetCRLDistributionPointCountEv
00046228 t __ZN13DICertificate24FExtendedKeyUsageAllowedEm
00046424 t __ZN13DICertificate34CopyAuthorityInformationAccessURIsEv
00046530 t __ZN13DICertificate26FIdenticalSubjectAndIssuerEv
000465d8 t __ZN13DICertificate21CopyIssuerDisplayNameEv
00046630 t __ZN13DICertificate17GetASNCertificateEv
00046660 t __ZN13DICertificate24FEnsureNormalizedSubjectEv
00046720 t __ZN13DICertificate25FMatchesNormalizedSubjectEPK8__CFData
000467b4 t __ZN13DICertificate21CopyNormalizedSubjectEv
000467f4 t __ZN13DICertificate23FEnsureNormalizedIssuerEv
000468b4 t __ZN13DICertificate20CopyNormalizedIssuerEv
000468f4 t __ZN13DICertificate28GetMostSpecificRDNFieldValueEP14ASNRDNSequencePK9cssm_data
000469a0 t __ZN13DICertificate19GetIssuerFieldValueEPK9cssm_data
00046a00 t __ZN13DICertificate20CopyIssuerCommonNameEv
00046a58 t __ZN13DICertificate20GetSubjectFieldValueEPK9cssm_data
00046ab8 t __ZN13DICertificate21CopySubjectCommonNameEv
00046b10 T _DICertificateRelease
00046b44 T _DICertificateCopyCertificate
00046b9c T _DICertificateCopySubjectCommonName
00046bf4 T _DICertificateCopyIssuerCommonName
00046c4c T _DICertificateCopyKeychainDescription
00046ca4 T _DICertificateCopyIssuerDisplayName
00046cfc T _DICertificateCopyAuthorityInformationAccessURIs
00046d54 T _DICertificateGetSignatureAlgorithm
00046d94 T _DICertificateIsIdenticalSubjectAndIssuer
00046de4 T _DICertificateExtendedKeyUsageAllowed
00046e34 t __ZN13DICertificate16CopyEmailAddressEPh
00047010 T _DICertificateCopyEmailAddress
0004706c t __ZN13DICertificate22CopySubjectDisplayNameEv
0004713c T _DICertificateCopySubjectDisplayName
00047194 t __ZN13DICertificate16FEnsurePublicKeyEv
00047224 t __ZN13DICertificate13FGetPublicKeyEPP8cssm_key
0004726c t __ZN13DICertificate18FCopyFieldWithCSSMEPK9cssm_dataPPK8__CFData
00047344 T _DICertificateRetain
00047380 t __ZN13DICertificateD0Ev
000474a0 t __ZN13DICertificateD1Ev
000475c0 t __ZN13DICertificateC1Ev
00047644 t __ZN13DICertificate17CreateWithSecCertEP23OpaqueSecCertificateRef
00047728 T _DICertificateCreateWithSecCert
00047780 t __ZN13DICertificate22CreateWithPersistentIDEPK8__CFDataPKv
0004781c T _DICertificateCreateWithPersistentID
0004786c t __ZN13DICertificate14CreateWithDataEPK8__CFData
000478dc T _DICertificateCreateWithData
00047934 t __ZN13DICertificate16CreateWithBufferEPKhm
00047990 T _DICertificateCreateWithBuffer
000479ec t __ZN13DICertificate16CopyPersistentIDEv
00047acc T _DICertificateCopyPersistentID
00047b24 T _DICertificateGetExpiration
00047b8c t __Z27DICertificateRetainCallBackPK13__CFAllocatorPKv
00047bc8 t __Z28DICertificateReleaseCallBackPK13__CFAllocatorPKv
00047bd4 T _DICertificateCopyCertData
00047c3c t __ZN13DICertificate24FDigitalSignatureIsValidEPS_
00047d30 T _DICertificateGetPublicKey
00047d88 T _DICertificateGetUsage
00047e08 T _DICertificateGetPublicKeyUsage
00047e7c T _DICertificateIsIndividual
00047efc t __ZN13DICertificate31CopyBrokenAppleNormalizedIssuerEv
00047f74 t __ZN13DICertificate32CopyBrokenAppleNormalizedSubjectEv
00047fec t __ZN13DICertificate16CopyFromKeychainEPP23OpaqueSecCertificateRef
00048164 T _DICertificateCopyFromKeychain
00048180 T _DICertificateTimeIsWithinValidity
00048240 T _DICopyKeychainForCertType
00048410 T _DIAddCertificates
00048514 T _DICopyCertsForCertType
0004866c T _DICopyCertsWithEmailAddress
000487f0 T _DICreateCertificateFromDER
0004883c T _DIDecodePEMObjects
00048a28 T _DICopyCertificatesAndKeysFromPKCS12
00049050 T _DICreateCertificatesFromPEMData
0004916c T _DICopyCertificatesFromPKCS7
00049310 T _DICreatePEMDataForCertificate
00049500 T _DICreatePKCS7DataWithCertificates
000497a0 T _DICreatePKCS12DataWithCertificatesAndKey
00049860 t __ZN15DIAnchorManagerD1Ev
000498d8 t __ZN15DIAnchorManagerD0Ev
0004994c t __ZN15DIAnchorManagerC1Ev
000499a4 t __ZN15DIAnchorManager22CopyAnchorsWithSubjectEPK8__CFDataPPK9__CFArray
00049b14 t __ZN15DIAnchorManager4InitEv
00049c68 t __ZN15DIAnchorManager9CreateNewEv
00049ce4 t __ZN5DICRL13FEnsureASNCRLEv
00049d58 t __ZN5DICRL16FEnsureSignatureEv
00049dd4 t __ZN5DICRL13CopySignatureEv
00049e14 t __ZN5DICRL20FCertificateIsListedEP13DICertificatePm
00049f24 t __ZN5DICRL22FGetSignatureAlgorithmEPm
00049fac t __ZN5DICRL24FDigitalSignatureIsValidEP13DICertificate
0004a09c t __ZN5DICRL13FGetExtensionEmPP16ASNX509Extension
0004a150 t __ZN5DICRL23FEnsureNormalizedIssuerEv
0004a210 t __ZN5DICRL20CopyNormalizedIssuerEv
0004a250 t __ZN17DICRLCacheManager37GetAttributeValueForDistributionPointEPK10__CFString
0004a2e4 t __ZN17DICRLCacheManager10CloseCacheEv
0004a344 t __ZN17DICRLCacheManager14GetStorageFileEP5FSRef
0004a41c t __ZN17DICRLCacheManager21InitializeNewDatabaseEv
0004a594 t __ZN17DICRLCacheManager16CreateCRLStorageEP5FSRef
0004a6d4 t __ZN17DICRLCacheManager25FDatabaseAtCurrentVersionEv
0004a7ec t __ZN17DICRLCacheManager14OpenCRLStorageEP5FSRef
0004a8b8 t __ZN17DICRLCacheManager9OpenCacheEv
0004a944 t __ZN17DICRLCacheManager18RemoveCRLFromCacheEP5DICRL
0004aafc t __ZN20DICertRevocationInfo15SetUpdatePolicyEm
0004ab04 t __ZN20DICertRevocationInfo20SetCertTrustCallbackEPFvPvmS0_EhS0_
0004ab44 t __ZN20DICertRevocationInfo17SetEvaluationTimeEd
0004ab4c t __ZN20DICertRevocationInfo11DownloadCRLEPK7__CFURLPP14OpaqueNLBuffer
0004ad38 t __ZN20DICertRevocationInfo12FCFDataEqualEPK8__CFDataS2_
0004adb0 t __ZN20DICertRevocationInfo20FKeyIdentifiersMatchEP5DICRLP13DICertificate
0004ae68 t __ZN20DICertRevocationInfo21FCertificateIsRevokedEPm
0004af74 t __ZN20DICertRevocationInfo24ReleaseGlobalAllocationsEv
0004af78 t __ZN20DICertRevocationInfoD0Ev
0004b01c t __ZN20DICertRevocationInfoD1Ev
0004b0c4 t __ZN17DICRLCacheManagerD0Ev
0004b12c t __ZN17DICRLCacheManagerD1Ev
0004b18c t __ZN5DICRLD0Ev
0004b250 t __ZN5DICRLD1Ev
0004b314 t __ZN20DICertRevocationInfo18SetCRLCacheManagerEP17DICRLCacheManager
0004b378 t __ZN20DICertRevocationInfo14SetValidSignerEP13DICertificate
0004b3dc t __ZN20DICertRevocationInfo20SetCertTrustTemplateEP11DICertTrust
0004b440 t __ZN20DICertRevocationInfoC1EP13DICertificate
0004b4e8 t __ZN20DICertRevocationInfo9CreateNewEP13DICertificate
0004b550 t __ZN17DICRLCacheManagerC1Ev
0004b5a8 t __ZN17DICRLCacheManager9CreateNewEv
0004b624 t __ZN5DICRLC1Ev
0004b690 t __ZN5DICRL14CreateWithDataEPK8__CFData
0004b6f8 t __ZN5DICRL16CreateWithBufferEPKhm
0004b754 t __ZN17DICRLCacheManager23ExecuteSimpleCacheQueryEmPK8__CFDataPPK9__CFArray
0004b990 t __ZN17DICRLCacheManager29FindCRLsWithDistributionPointEPK10__CFStringPPK9__CFArray
0004b9f4 t __ZN5DICRL24CreateWithPEMOrDERBufferEPKhm
0004bab0 t __ZN17DICRLCacheManager21CacheCRLWithAttributeEP5DICRLPK8__CFDataPK10__CFString
0004bd80 t __ZN20DICertRevocationInfo12FCRLIsUsableEP5DICRL
0004be3c t __ZN20DICertRevocationInfo14FCRLIsUpToDateEP5DICRL
0004becc t __ZN20DICertRevocationInfo14FCRLIsCompleteEP5DICRL
0004bfa0 t __ZN20DICertRevocationInfo13FCRLIsTrustedEP5DICRL
0004c0b8 t __ZN20DICertRevocationInfo30LoadRevocationInfoForDistPointEPK10__CFStringPh
0004c3bc t __ZN20DICertRevocationInfo21LoadAllRevocationInfoEv
0004c44c t __ZN20DICertRevocationInfo30GetCertificateRevocationStatusEPmS0_
0004c570 t __ZN11DICertTrust13SetEntityCertEP23OpaqueSecCertificateRef
0004c5d0 t __ZN11DICertTrust20SetCertTrustCallbackEPFvPvmS0_EhS0_
0004c61c t __ZN11DICertTrust23AddIntermediateKeychainEP20OpaqueSecKeychainRef
0004c690 t __ZN11DICertTrust24AddIntermediateKeychainsEPKv
0004c744 t __ZN14PolicyTreeNode17AddExpectedPolicyEPK8__CFData
0004c7bc t __ZN11DICertTrust12FCFDataEqualEPK8__CFDataS2_
0004c834 t __ZN11DICertTrust27ConfirmSubjectKeyIdentifierEP13DICertificatePK8__CFData
0004c8d0 t __ZN11DICertTrust25DownloadParentCertificateEP19OpaqueDICertificatePS1_
0004cc14 T _DICertTrustRelease
0004cc48 T _DICertTrustSetEntityCert
0004cc7c T _DICertTrustAddIntermediateKeychains
0004cc90 T _DICertTrustGetEntityCert
0004ccb8 t __ZN11DICertTrust23FEvalCheckNodeSignatureEP12CertTreeNode
0004cda4 t __ZN11DICertTrust23FEvalPrepareForNextNodeEP12CertTreeNode
0004cf9c t __ZN11DICertTrust21FEvalFinishEvaluationEP12CertTreeNode
0004d060 t __ZN11DICertTrust33FEvalCriticalExtensionsAreHandledEP12CertTreeNode
0004d184 t __ZN11DICertTrust31FCopyNodeAuthorityKeyIdentifierEP12CertTreeNodePPK8__CFData
0004d224 t __ZN11DICertTrust20CopyCertificateChainEPPK9__CFArray
0004d2dc T _DICertTrustCopyCertificateChain
0004d2f0 t __ZN11DICertTrust27FEvalCheckNodeBasicValidityEP12CertTreeNode
0004d4a0 t __ZN11DICertTrust14CopyNodeIssuerEP12CertTreeNode
0004d4bc t __ZN11DICertTrust25CopyNodeBrokenAppleIssuerEP12CertTreeNode
0004d4e4 t __ZN11DICertTrust16GetFailureReasonEPm
0004d5e4 T _DICertTrustGetFailureReason
0004d638 t __ZN11DICertTrust18FEvalNodeIsRevokedEP12CertTreeNode
0004d704 t __ZN11DICertTrust35CopyAllIntermediatesWithSubjectNameEPK8__CFDataS2_PP9__CFArray
0004d8b8 t __ZN11DICertTrust19AddIntermediateCertEP23OpaqueSecCertificateRef
0004d948 t __ZN11DICertTrust20AddIntermediateCertsEPKv
0004d9f0 T _DICertTrustAddIntermediateCerts
0004da0c T _DICertTrustRetain
0004da48 t __ZN14PolicyTreeNodeD0Ev
0004dadc t __ZN14PolicyTreeNodeD1Ev
0004db74 t __ZN12CertTreeNodeD0Ev
0004dbfc t __ZN12CertTreeNodeD1Ev
0004dc7c t __ZN11DICertTrustD0Ev
0004dd60 t __ZN11DICertTrustD1Ev
0004de48 t __ZN11DICertTrust16SetAnchorManagerEP15DIAnchorManager
0004deac t __ZN11DICertTrust18SetCRLCacheManagerEP17DICRLCacheManager
0004df10 t __ZN12CertTreeNode9SetSigneeEPS_
0004df60 t __ZN14PolicyTreeNodeC1Ev
0004dfc0 t __ZN14PolicyTreeNode9CreateNewEv
0004e010 t __ZN12CertTreeNodeC1Ev
0004e078 t __ZN12CertTreeNode9CreateNewEmPv
0004e104 t __ZN11DICertTrust20CreateSigningObjectsEP12CertTreeNodePPK9__CFArray
0004e328 t __ZN11DICertTrust20BuildCertificateTreeEPP9__CFArray
0004e530 t __ZN11DICertTrustC1Ev
0004e5d4 t __ZN11DICertTrust9CreateNewEm
0004e6f8 T _DICertTrustCreateNew
0004e748 T _DICertTrustSetCertTrustCallback
0004e794 t __ZN11DICertTrust20FEvalInitializeStateEP12CertTreeNode
0004e8b4 t __ZN11DICertTrust21FEvalUpdatePolicyTreeEP12CertTreeNode
0004ed98 t __ZN11DICertTrust16FEvalProcessNodeEP12CertTreeNode
0004ee94 t __ZN11DICertTrust24EvaluateCertificateChainEP12CertTreeNodePm
0004ef7c t __ZN11DICertTrust23EvaluateCertificateTreeEP9__CFArrayPm
0004f36c t __ZN11DICertTrust13EvaluateTrustEPm
0004f40c T _DICertTrustEvaluateTrust
0004f420 T _NLCreateLexer
0004f4b8 T _NLMatchRegularExpression
0004f5d8 T _NLDisposeLexer
0004f620 t __ZN14AuthCtx_SPNEGOC1Ev
0004f690 t __ZN14AuthCtx_SPNEGO9ClearDataEv
0004f6f4 t __ZN14AuthCtx_SPNEGO13GetAuthSchemeEv
0004f6fc t __ZN14AuthCtx_SPNEGO24IsSessionBasedAuthSchemeEv
0004f704 t __ZN14AuthCtx_SPNEGO13AuthOnRequestER12NLConnectionR20NLMessageRequestHTTP
0004f7f4 t __ZN14AuthCtx_SPNEGO23ReadNegotiateAuthHeaderER17NLMessageResponseR8StString
0004f8c4 t __ZN14AuthCtx_SPNEGO16CreateTargetNameERK12NLConnection
0004f91c t __ZN14AuthCtx_SPNEGO22HandleAcceptIncompleteEPhm
0004fa0c t __ZN14AuthCtx_SPNEGO17HandleTargetTokenEPKhm
0004fb00 t __ZN14AuthCtx_SPNEGO17HandleAuthFailureEv
0004fb0c t __ZN14AuthCtx_SPNEGO27FCollectProxyRefCredentialsER12NLConnection
0004fc2c t __ZN14AuthCtx_SPNEGOD1Ev
0004fc94 t __ZN14AuthCtx_SPNEGOD0Ev
0004fd04 t __ZN14AuthCtx_SPNEGO14AuthOnResponseER12NLConnectionR20NLMessageRequestHTTPR17NLMessageResponsel
0004fec0 t __ZN14AuthCtx_SPNEGO5FInitEPK12NLConnectionP18NLCredentialsBlockb
0004ffe8 t __ZN14AuthCtx_SPNEGO19FCollectCredentialsER12NLConnectionR20NLMessageRequestHTTPR17NLMessageResponse
00050230 t __Z24CreateMechTokenASNObjectP22gss_buffer_desc_structPP9ASNObject
000502d0 t __Z33CreateNegTokenInitOrRespASNObjectbPP9ASNObjectmS1_
00050364 t __Z20SPNEGO_ReleaseBufferPh
00050370 t __Z32GetUniversalTagDataFromASNObjectP9ASNObjectmPPhRm
00050450 t __Z30SPNEGO_ParseNegotiateTokenRespPKhmR16SPNEGO_NegResultPPhRmS4_S5_S4_S5_
00050768 t __Z15EncodeASNObjectbP9ASNObject
00050880 t __Z31SPNEGO_CreateNegotiateTokenResp16SPNEGO_NegResultP22gss_buffer_desc_structS1_
00050ac4 t __Z31SPNEGO_CreateNegotiateTokenInitP23gss_OID_set_desc_structP22gss_buffer_desc_struct
00050dc0 t __Z18GSSAPI_CompareNamePvS_Rb
00050e28 t __Z20GSSAPI_IndicateMechsPP23gss_OID_set_desc_struct
00050e70 t __Z18GSSAPI_AcquireCredPvPS_
00050ec8 t __Z18GSSAPI_InquireCredPvRS_Rh
00050f5c t __Z21GSSAPI_InitSecContextPvS_P19gss_OID_desc_structP22gss_buffer_desc_structPS_PS1_S3_Pb
00051010 t __Z11GSSAPI_WrapPvP22gss_buffer_desc_structS1_
0005107c t __Z13GSSAPI_UnwrapPvP22gss_buffer_desc_structS1_
000510e8 t __Z20GSSAPI_ReleaseBufferP22gss_buffer_desc_struct
00051118 t __Z21GSSAPI_ReleaseContextPPv
00051168 t __Z18GSSAPI_ReleaseCredPPv
000511b4 t __Z18GSSAPI_ReleaseNamePPv
00051200 t __Z20GSSAPI_ReleaseOIDSetPP23gss_OID_set_desc_struct
0005124c t __Z42GSSAPI_CreateTargetNameFromProtoAndAddressPK10__CFStringR13NLAddressInetPPv
0005138c t __Z26GSSAPI_CreatePrincipalNamePK10__CFStringPPv
00051480 t __Z14CFTypeToBufferPKvbPPhRl
000515e4 t __Z25KerberosLoginIdleCallbackj
00051648 T _NLGSSAPIDisposeAuthenticationContext
00051684 T _NLGSSAPIReleaseCredentials
000516c4 T _NLGSSAPICopyAvailablePrincipalNames
000518a8 T _NLGSSAPIAreCredentialsValid
000518dc T _NLGSSAPISetIdleCallback
0005197c T _NLGSSAPIAcquireNewTicketGrantingTicket
00051a60 T _NLGSSAPIRetainCredentials
00051aa0 T _NLGSSAPIPrincipalCopyDisplayName
00051bec T _NLGSSAPIPrincipalCopyNameAndRealm
00051db4 t __Z20GSSAPIBufferToCFTypeRK22gss_buffer_desc_structb
00051e80 t __Z15GSSWrapOrUnwrapbP21OpaqueNLGSSAPIContextPK8__CFDataPS3_
00051f94 T _NLGSSAPIUnwrapData
00051fac T _NLGSSAPIWrapData
00051fc4 T _NLGSSAPICreateAuthenticationMessage
00052134 T _NLGSSAPIAcquireCredentials
00052218 t __ZN15NLGSSAPIContextC1Ev
00052250 T _NLGSSAPICreateAuthenticationContext
00052350 t __ZN15NLGSSAPIContextD1Ev
000523d0 t __ZN15NLGSSAPIContextD0Ev
00052460 T _NLAddressGetAddressCount
000524ec T _NLAddressGetAddressAtIndex
00052614 T _NLDirectReceive
000526fc T _NLConnectionWaitForAction
00052830 T _NLConnectionCountDataAvailable
000528f0 t __ZN12UAddressUtil21NumericToPresentationEhPKvPPK10__CFString
00052988 t __ZN12UAddressUtil21PresentationToNumericEhPK10__CFStringPv
00052a54 t __ZN21NLUserPassCredentialsC1Ev
00052af8 t __ZN21NLUserPassCredentialsD0Ev
00052b98 t __ZN21NLUserPassCredentials25CastToUserPassCredentialsEv
00052ba4 t __ZN21NLUserPassCredentialsD1Ev
00052c40 t __ZN19NLGSSAPICredentials17CopyPrincipalNameEv
00052cb0 t __ZN19NLGSSAPICredentials23CastToGSSAPICredentialsEv
00052cb4 t __ZN19NLGSSAPICredentials5ClearEv
00052d0c t __ZN19NLGSSAPICredentials17HandleAuthFailureEv
00052d68 t __ZN19NLGSSAPICredentials16SetPrincipalInfoEPK10__CFStringP11NLGSSCredID
00052dfc t __ZN19NLGSSAPICredentialsD0Ev
00052e7c t __ZN19NLGSSAPICredentialsD1Ev
00052efc t __ZN19NLGSSAPICredentials24CopyPrincipalCredentialsEv
00052f70 t __ZN19NLGSSAPICredentialsC1Ev
00052fd0 t __ZN26NLUserPassCredentialsBlock15CanPreAuthorizeEv
0005301c t __ZN26NLUserPassCredentialsBlock14GetCredentialsEv
00053024 t __ZN26NLUserPassCredentialsBlock30CastToUserPassCredentialsBlockEv
00053028 t __ZN26NLUserPassCredentialsBlock5FInitE16NLAuthSchemeEnumPK10__CFStringtPK7__CFURLS3_
000530b0 t __ZN26NLUserPassCredentialsBlockC2ER21NLUserPassCredentialsRK11NLClassInfo
00053124 t __ZN26NLUserPassCredentialsBlockC1ER21NLUserPassCredentialsRK11NLClassInfo
00053198 t __ZN26NLUserPassCredentialsBlock6CreateE16NLAuthSchemeEnumPK10__CFStringtPK7__CFURLS3_P13NLCredentials
000532c4 t __ZN26NLUserPassCredentialsBlockD2Ev
00053374 t __ZN26NLUserPassCredentialsBlockD1Ev
00053424 t __ZN26NLUserPassCredentialsBlockD0Ev
000534e0 t __ZN24NLGSSAPICredentialsBlock15CanPreAuthorizeEv
000535ac t __ZN24NLGSSAPICredentialsBlock14GetCredentialsEv
000535b4 t __ZN24NLGSSAPICredentialsBlock28CastToGSSAPICredentialsBlockEv
000535bc t __ZN24NLGSSAPICredentialsBlockC1ER19NLGSSAPICredentialsRK11NLClassInfo
00053630 t __ZN24NLGSSAPICredentialsBlock6CreateEPK10__CFStringtPK7__CFURLS2_P13NLCredentials
00053758 t __ZN24NLGSSAPICredentialsBlockD1Ev
00053808 t __ZN24NLGSSAPICredentialsBlockD0Ev
000538c0 t __ZN16AuthCtx_UserPassC2Ev
00053918 t __ZN16AuthCtx_UserPass19SetCredentialsBlockEP18NLCredentialsBlock
00053968 t __ZN16AuthCtx_UserPass5FInitEPK12NLConnectionP18NLCredentialsBlockb
000539dc t __ZN16AuthCtx_UserPass27FCollectProxyRefCredentialsER12NLConnection
00053b08 t __ZN16AuthCtx_UserPass17HandleAuthFailureEv
00053b38 t __ZN16AuthCtx_UserPass15FSetUserAndPassEPK10__CFStringS2_S2_
00053be4 t __ZN16AuthCtx_UserPassD0Ev
00053c50 t __ZN16AuthCtx_UserPassD2Ev
00053cb4 t __ZN16AuthCtx_UserPassD1Ev
00053d18 t __ZN16AuthCtx_UserPass19FCollectCredentialsER12NLConnectionR20NLMessageRequestHTTPR17NLMessageResponse
00053fd0 t __ZN11NLGSSCredID7IsValidEPK10__CFStringRh
0005409c t __ZN11NLGSSCredIDD0Ev
00054108 t __ZN11NLGSSCredIDD1Ev
00054170 t __ZN11NLGSSCredIDC1EPv
000541d0 t __ZN22NLConnectionConcurrent13WaitForActionEhhlPhS0_
000541e8 t __ZN22NLConnectionConcurrent15CancelOperationEv
00054204 t __ZNK22NLConnectionConcurrent15GetSecurityInfoER14NLSecurityInfoPPK8__CFData
00054238 t __ZNK22NLConnectionConcurrent29HasRemoteHostClosedConnectionERh
000542a0 t __ZN22NLConnectionConcurrent12GetCookieJarEv
000542bc t __ZN22NLConnectionConcurrent19GetCredentialsCacheEv
000542f4 t __ZN22NLConnectionConcurrent4SendEPK6NLHostPKvmPm
000544bc t __ZN22NLConnectionConcurrent7ReceiveEPvmmPm
00054738 t __ZN22NLConnectionConcurrent11WaitForDataEv
000547ec t __ZN22NLConnectionConcurrent20GetAvailableDataSizeEv
000548b4 t __ZN22NLConnectionConcurrentD0Ev
00054998 t __ZN22NLConnectionConcurrentD1Ev
00054a74 t __ZN22NLConnectionConcurrentD2Ev
00054b50 t __ZN22NLConnectionConcurrentC2ERK11NLClassInfo
00054c30 t __ZN22NLConnectionConcurrent7ReceiveER8NLBuffermmPm
00054e40 t __ZN18NLSocketConcurrent13WaitForActionEhhlPhS0_
000550bc t __ZN18NLSocketConcurrent11WaitForDataEm
00055170 t __ZNK18NLSocketConcurrent14CountDataBytesERm
000551d8 t __ZNK18NLSocketConcurrent29HasRemoteHostClosedConnectionEv
00055234 t __ZN18NLSocketConcurrent11GetPeerInfoER6NLHost
000552ec t __ZN18NLSocketConcurrent5WriteEPK6NLHostPKvmmPm
00055414 t __ZN18NLSocketConcurrent13WriteBlockingEPK6NLHostPKvmmPm
000554c0 t __ZN18NLSocketConcurrent12GetBoundInfoER6NLHost
00055534 t __ZN18NLSocketConcurrent12GetBoundPortERt
000555bc t __ZN18NLSocketConcurrent4ReadEPvmmPm
00055740 t __ZN18NLSocketConcurrent12ReadBlockingEPvmmPm
000557fc t __ZN18NLSocketConcurrentD1Ev
000558b0 t __ZN18NLSocketConcurrentD2Ev
0005596c t __ZN18NLSocketConcurrentC2EPFlPvES0_
00055a04 t __ZN18NLSocketConcurrentD0Ev
00055ac0 t __ZN28NLConnectionSSLDataLayerBase18ReceiveServerHelloER18NLSocketConcurrentPPcPmPt
00055c24 t __ZN28NLConnectionSSLDataLayerBaseD1Ev
00055c48 t __ZN28NLConnectionSSLDataLayerBaseD2Ev
00055c6c t __ZN28NLConnectionSSLDataLayerBaseC2ER12NLConnectionR18NLSocketConcurrent
00055cbc t __ZN28NLConnectionSSLDataLayerBaseD0Ev
00055d04 t __ZN28NLConnectionSSLDataLayerBase19FEnsureSessionCacheEv
00055d80 t __ZN28NLConnectionSSLDataLayerBase17BeginSSLHandshakeER18NLSocketConcurrentR12NLConnectionP13NLAddressInetPP21NLConnectionDataLayer
00056040 T _NLGetCFMProcPtrFromMachProcPtr
000560dc T _NLGetProcPtrFromNativeProcPtr
000560e8 T _NLGetMachProcPtrFromCFMProcPtr
000561dc t _NLGetNativeProcPtrFromProcPtr
000561f0 t ___tcf_0
00056214 t ___tcf_0
00056230 t __ZN16MemoryManagement37UpdateInternalStateToMatchSystemStateEv
000562d4 T _NLRegisterLastCallDeallocationProc
00056358 T _NLUnregisterLastCallDeallocationProc
000563e8 T _NLRegisterAppLastCallDeallocationProc
00056404 T _NLUnregisterAppLastCallDeallocationProc
00056424 T _NLIssueLastCallForDeallocation
000564dc t __Z16GetAllocatorCorev
000565d4 T _NLGetCleaningAllocator
000565d8 T _NLGetCFAllocator
00056604 T _NLTerminateReserveMemoryManagement
0005664c T _nl_malloc_size_stub
00056658 t __ZN16MemoryManagement12FCanAllocateEm
00056718 T _nl_zalloc_stub
00056788 T _nl_malloc_stub
000567f4 t __ZN16MemoryManagement14FCanReallocateEmm
000568e0 t __ZN16MemoryManagement20RequestReserveMemoryEm
000569d0 T _NLRequestReserveMemoryImpl
00056a04 t __ZN16MemoryManagement7DisableEv
00056a90 T _NLDisableMemoryManagementImpl
00056abc t __Z12DoCFAllocatelmPv
00056b68 T _NLEnableReserveMemoryManagement
00056c0c T _nl_realloc_stub
00056c94 t __Z14DoCFReallocatePvlmS_
00056d7c T _nl_free_stub
00056e2c t __Z13DoCFDellocatePvS_
00056eb8 t __ZN16MemoryManagement7RestoreEP24OpaqueEnabledMemoryState
00056f0c T _NLRestoreMemoryManagement
00056f38 t __ZN16MemoryManagement20ReleaseReserveMemoryEP24OpaqueReserveMemoryState
00056f8c T _NLReleaseReserveMemory
00056fbc t ___tcf_0
00056fdc T _NLReadOneCharFromConsole
000570c0 T _NLWriteCFStringToConsole
0005717c t __Z12PerformWritePKcm
00057238 T _NLWriteToConsole
000572b0 T _NLWriteRgchToConsole
00057324 t __Z13PerformWritevPK10__CFStringPc
00057464 T _NLWriteToConsolev
000574d8 T _NLWriteToConsolef
00057568 T _NLConsoleSetLogFile
00057638 T _NLGetConsoleLogPath
00057700 t __Z21GetContentsOfCFStringPK10__CFStringPPcPl
000577b0 t __Z12PerformWriteP13NLLogFileInfoPKcl
00057838 t __Z13PerformWritevP13NLLogFileInfoPK10__CFStringPc
000578d8 t _NLInitLogFile
00057934 t _NLAppendCFStringToLog
000579dc t _NLSetLogFilePath
00057a9c t _NLGetLogFilePath
00057b14 t _NLAppendBytesToLog
00057b98 t _NLAppendToLogf
00057c2c t _NLAppendToLogv
00057cb0 t __Z17NLCreateRemoteMemjPP15OpaqueRemoteMem
00057d20 t __Z18NLDisposeRemoteMemP15OpaqueRemoteMem
00057d64 t __Z15NLCopyRemoteMemP15OpaqueRemoteMemjPvj
00057d80 t _nlstackcrawl_exception_raise
00057e34 t __Z26ExceptionHandlerThreadProcPv
00057ee8 t __Z25InitExceptionHandlerMutexv
00057f40 t __Z29RemoveSafeMemExceptionHandlerR22NLExceptionHandlerData
00058014 t __Z30InstallSafeMemExceptionHandlerR22NLExceptionHandlerData
0005822c t __Z11SafeMemReadPvmS_
0005828c t __Z19FSafeMemReadFailurev
000582ac t __Z27GetAppNameAndVersionStringsPclS_l
00058364 T _NlSetDisableShipAssert
00058388 T _NlSetUseShipAssertFile
000583a4 T _NLCopyShipAssertFilePathForPid
00058590 T _NLGetShipAssertFilePath
0005866c t __Z35ShipAssertLogFileStackCrawlCallbackmPKvS0_PKcS2_mPv
000586f0 T _NLAssertShipAssertFailedv
000589e0 T _NLAssertShipAssertFailedf
00058a44 T _NLAssertShipAssertFailedfcc
00058ad0 t __Z11GetLinkAreav
00058ad8 T _NLStackCrawl
00058fc4 t __Z13LogStackFramemPKvS0_PKcS2_mPv
00059038 T _NLLogStackCrawl
0005906c t __ZN18CLoadedModuleCache16GetModuleAtIndexEj
000590d0 t __Z13ReadImageNamejjPjS_
00059178 t __Z15SearchForSymbolPK11mach_headermPK14symtab_commandPK16dysymtab_commandPcmRm
00059320 t __Z14FCopyMemSafelyP15OpaqueRemoteMemPvmS1_
00059370 t _NLAddressIsInModule
000593b8 t _NLModuleGetName
000593d4 T _NLModuleLookupNextModule
0005948c t __ZN18CLoadedModuleCache21ImageSearchComparatorEPKvS1_Pv
000594d4 t __ZN18CLoadedModuleCache22RemoveLibraryFromCacheEj
0005958c t __ZN18CLoadedModuleCache11DeleteCacheEv
0005963c t __ZN22CLiveLoadedModuleCache15EnsureLiveCacheEv
000596f4 t __ZN24CRemoteLoadedModuleCache14MapRemoteImageEjP11mach_headerPjS2_
00059800 T _NLModuleLookupEnd
00059850 t __ZN18CLoadedModuleCache19FindImageContainingEmPm
00059a48 t __ZN18CLoadedModuleCache17AddLibraryToCacheEP14CCachedLibrary
00059b50 t __ZN18CLoadedModuleCache21AddCFMFragmentToCacheEjjPKcS1_h
00059bec t __ZN18CLoadedModuleCache19AddMachImageToCacheEPK11mach_headerPKcimh
00059cf0 t __ZN24CRemoteLoadedModuleCache17BuildCacheForTaskEj
0005a46c t __ZN24CRemoteLoadedModuleCache17EnsureRemoteCacheEj
0005a53c T _NLModuleLookupBegin
0005a5d0 T _NLModuleLookup
0005a68c T _NLSymbolLookup
0005ab94 T _NLSymbolLookupRegisterCFMFragment
0005ac2c t __ZN22CLiveLoadedModuleCache18HandleDYLDAddImageEPK11mach_headerl
0005ac8c t __ZN18CLoadedModuleCache24RemoveMachImageFromCacheEPK11mach_headerm
0005ad7c t __ZN22CLiveLoadedModuleCache21HandleDYLDRemoveImageEPK11mach_headerl
0005adb0 t __Xnlstackcrawl_exception_raise
0005ae1c t _nlstackcrawlexception_server
0005aed0 t _nlstackcrawlexception_server_routine
0005af00 t ___tcf_0
0005af1c t ___tcf_0
0005af40 t -[NLAssertionHandler handleFailureInMethod:object:file:lineNumber:description:]
0005af98 t -[NLAssertionHandler handleFailureInFunction:file:lineNumber:description:]
0005aff4 t +[NLAssertionHandler installHandlerInCurrentThread]
0005b044 t +[NLAssertionHandler removeHandlerFromCurrentThread]
0005b094 t +[NLAssertionHandler installHandlerInThread:]
0005b134 t +[NLAssertionHandler removeHandlerFromThread:]
0005b1d0 T _NLInstallCocoaAssertHandler
0005b344 T _NLRemoveCocoaAssertHandler
0005b4c0 t ___udivdi3
0005b900 t ___umoddi3
i386

/Volumes/ppcData/builds/rdc20dev/Ship/Test/Office/Netlib.framework/Versions/12/Netlib(single module):
00000000 t ___dso_handle
00001570 t _cxa_atexit_check_2
00001581 t _cxa_atexit_check_1
000015c5 t _check_cxa_atexit
0000163a t _get_globals
000017a7 t _add_routine
00001840 t _run_routines
000018fc t _cxa_atexit_wrapper
000019cd t _atexit_common
00001b63 t ___cxa_atexit
00001b90 t _strncpy_s
00001ca8 t _strnlen
00001cc4 t _strtok_s
00001d4c t _strcpy_s
00001dcf t __putc_nolock
00001dfa t __safecrt_cfltcvt
00001ed0 t _xtoa_s
00001fcb t __itoa_s
00002008 t _sprintf_s
00002033 t __snprintf_s
00002068 t __vsnprintf_helper
0000210d t __vsprintf_s
00002176 t __vsnprintf_s
00002290 t __vscprintf
000022e4 t _write_string
000023a4 t __output_s
00003054 t _write_string
00003114 t __output
00003db0 t __Z14MonthFromTokenPKci
00003e06 t __Z17TimeZoneFromTokenPKci
00003f6e t __Z8CchTokenPKcS0_
00003fd0 t __Z9GetNumberPKcS0_Pi
00004028 t __Z12GetTimeOfDayPKciPiS1_S1_
00004194 T _NLLongDateToInetString
00004276 t __Z9SkipWhitePKcS0_
000042d0 t __Z13ParseDateTimePKciP2tm
0000470a t __Z22NLInetStringToUnixTimePK10__CFStringP2tm
000047a8 T _NLInetStringToLongDate
0000487c t __ZN13NLAddressInet7GetNameEPPK10__CFString
000048d8 t __ZN13NLAddressInet15GetOfficialNameEPPK10__CFString
00004926 t __ZN13NLAddressInet15GetOfficialNameER8StString
0000497c t __ZN13NLAddressInet17IsNameUnQualifiedEPK10__CFString
000049bc t __ZN13NLAddressInet13IsIPv4AddressEPKc
00004a54 T _NLDisposeAddress
00004a94 t __ZN13NLAddressInet17IsRFC2396HostNameEPK10__CFString
00004b4e t __ZN13NLAddressInet7SetNameEPK10__CFString
00004bd4 t __ZN13NLAddressInet14GetHostAtIndexEltR6NLHost
00004cc4 t __ZN13NLAddressInet15GetHostAsStringEPPK10__CFString
00004d56 t __ZN13NLAddressInet24CopyHostStringAsCFStringEPPK10__CFString
00004d9e T _NLGetAddressName
00004e14 t __ZN13NLAddressInet15GetHostAsStringER8StString
00004e6a t __ZN13NLAddressInet24CopyHostStringAsStStringER8StString
00004eb2 t __ZN13NLAddressIneteqERS_
0000507c t __ZN13NLAddressInet20CreateArrayWithAddrsER9NLCFArrayPP8in6_addr
0000515e t __ZN13NLAddressInet20CreateArrayWithAddrsER9NLCFArrayPP7in_addr
00005240 t __ZN13NLAddressInet7SetHostEPK7in_addr
000052d8 t __ZN13NLAddressInet7SetHostEm
0000536e t __ZN13NLAddressInet7ResolveEP10NLNotifierP22NLConnectionConcurrent
000054f8 t __ZN13NLAddressInet18ResolveIfNecessaryEP10NLNotifierP22NLConnectionConcurrent
0000554e T _NLResolveAddress
000055ca t __ZN13NLAddressInetD0Ev
00005652 t __ZN13NLAddressInetD1Ev
000056d2 t __ZN13NLAddressInetC1Ev
00005762 t __ZN13NLAddressInet6CreateERK6NLHostPPS_
0000585e t __ZN13NLAddressInet6CreateEmPPS_
000058e0 t __ZN13NLAddressInet6CreateEPK10__CFStringPPS_
00005972 T _NLCreateAddress
000059e4 T _NLDiscardBufferData
00005a26 T _NLDisposeBuffer
00005a66 T _NLGetBufferDataSize
00005aaa T _NLGetBufferDataPtr
00005afe T _NLReleaseBufferDataPtr
00005b4a T _NLAddDataToBuffer
00005b9e t __ZN8NLBufferD0Ev
00005bf2 t __ZN8NLBufferD1Ev
00005c3e t __ZN8NLBufferC1Ev
00005c76 t __ZN8NLBuffer4InitEPK5FSRef12NLBufferMode
00005d1c t __ZN8NLBuffer12CreateBufferEPK5FSRef12NLBufferModePPS_
00005d9a T _NLCreateBuffer
00005df0 t __ZN17NLMemoryMapBuffer21ReleaseBufferWritePtrEm
00005eac t __ZN17NLMemoryMapBuffer9EmptyFileEv
00005f86 t __ZN17NLMemoryMapBuffer17DiscardBufferDataEv
0000602a t __ZN17NLMemoryMapBuffer15AddDataToBufferEPKvm
000060c8 t __ZN17NLMemoryMapBuffer13CompactBufferEv
000061b2 t __ZN17NLMemoryMapBuffer14GetNewTempFileEP5FSRef
00006308 t __ZN17NLMemoryMapBuffer15DumpBytesToDiskEPcm
00006432 t __ZN17NLMemoryMapBuffer24TryDumpUnreadBytesToFileEPmPh
0000651a t __ZN17NLMemoryMapBuffer11AllocBufferEm
000065d2 t __ZN17NLMemoryMapBuffer17GetBufferDataSizeEv
00006630 t __ZN17NLMemoryMapBuffer24GetBufferDataPtrInternalEPPKvPm
0000680c t __ZN17NLMemoryMapBuffer16GetBufferDataPtrEPPKvPm
000068be t __ZN17NLMemoryMapBuffer13ReleaseMemMapEPNS_6MemMapE
00006918 t __ZN17NLMemoryMapBuffer9NewMemMapEm
00006974 t __ZN17NLMemoryMapBuffer4InitEPK5FSRefh
00006aa6 t __ZN17NLMemoryMapBuffer20EnsureSpaceAvailableEm
00006c4c t __ZN17NLMemoryMapBuffer17GetBufferWritePtrEmPPv
00006cfc t __ZN17NLMemoryMapBuffer28ReleaseBufferDataPtrInternalEm
00006dc0 t __ZN17NLMemoryMapBuffer21WriteBufferDataToFileEPK5FSRef
000070bc t __ZN17NLMemoryMapBuffer20ReleaseBufferDataPtrEm
00007142 t __ZN17NLMemoryMapBufferD0Ev
00007230 t __ZN17NLMemoryMapBufferD1Ev
00007318 t __ZN17NLMemoryMapBufferC1Ev
000073f8 t __ZN25NLReadOnlyMemoryMapBuffer16GetBufferDataPtrEPPKvPm
00007468 t __ZN25NLReadOnlyMemoryMapBuffer20ReleaseBufferDataPtrEm
000074a8 t __ZN25NLReadOnlyMemoryMapBuffer4InitEPK5FSRefh
00007594 t __Z16GetValueOfCFDataPKv
00007610 t __ZN15NLClientContext9GetObjectEP21OpaqueNLClientContext
0000763c t __ZN15NLClientContextD0Ev
000076b6 t __ZN15NLClientContextD1Ev
0000772a T _NLDisposeClientContext
00007770 t __ZN15NLClientContextC1Ev
000077be t __ZN15NLClientContext19CreateClientContextEPPS_
00007872 T _NLCreateClientContext
000078c4 t __ZN12NLConnection14DetachResponseEP17NLMessageResponse
000078e2 t __ZN12NLConnection5CloseEb
00007974 t __ZN12NLConnection19AddDataToRecvBufferEPKvm
000079de t __ZN12NLConnection13SetPersistentEb
000079e4 t __ZNK12NLConnection12IsPersistentEv
000079ec t __ZN12NLConnection14AttachResponseEP17NLMessageResponse
00007a10 t __ZN12NLConnection20AddToConnectionCacheEv
00007a1c t __ZN12NLConnection15SwitchDataLayerEv
00007a96 t __ZN12NLConnection16NegotiateSOCKSv5ERh
00007b1c t __ZN12NLConnection10SetOptionsEm
00007bd6 T _NLConnectionCancelOperation
00007c40 t __ZN12NLConnection9OpenBoundERK6NLHostmPt
00007dd8 t __ZN12NLConnection6AcceptEPS_
00007f3a t __ZN12NLConnection16DiscardRemainingEv
00007f72 t __ZN12NLConnection18ClearClientContextEv
00007f9a t __ZN12NLConnection10SetAddressEP13NLAddressInet
00007fde t __ZN12NLConnection4OpenEP13NLAddressInettm
000081da t __ZN12NLConnection10SetAddressEPK10__CFString
00008212 t __ZN12NLConnection8SetProxyEP7NLProxy
00008256 t __ZN12NLConnection21GetSOCKSv5CredentialsE16NLAuthSchemeEnumPPK10__CFStringS4_
00008534 t __ZN12NLConnection16SetClientContextEP15NLClientContext
0000857e t __ZN12NLConnectionD0Ev
0000865c t __ZN12NLConnectionD1Ev
00008732 t __ZN12NLConnectionD2Ev
00008808 t __ZN12NLConnectionC1EP7NLProxyP15NLClientContextRK11NLClassInfo
000088ca t __ZN12NLConnectionC2EP7NLProxyP15NLClientContextRK11NLClassInfo
0000898c t __ZN12NLConnection24AuthenticateSOCKSv5BasicEPK10__CFStringS2_
00008bac T _NLCreateConnection
00008e40 t __ZN12NLConnection11DoReconnectEt
00009012 t __ZN12NLConnection19AuthenticateSOCKSv5Ev
000091ae t __ZN12NLConnection11OpenSOCKSv5Ev
000092d0 t __ZN12NLConnection11OpenSOCKSv4Ev
00009414 t __ZN12NLConnection9OpenSOCKSEv
00009490 t __ZN12NLConnection10OpenTunnelEv
000096c2 t __ZN12NLConnection9ReconnectEt
000097ea T _NLSendTo
00009ac4 T _NLSend
00009c84 T _NLDisposeConnection
00009d52 T _NLReceive
00009f12 T _NLCopyConnectionPeer
0000a0ae T _NLCopyConnectionBinding
0000a24a T _NLGetConnectionSecurityInfo
0000a2ec T _NLGetConnectionOptions
0000a35e T _NLConnectionHasServerDisconnected
0000a400 T _NLConnectionAttachNotifier
0000a4d6 T _NLConnectionResetCancellation
0000a55a T _NLAcceptConnection
0000a6f4 T _NLSetConnectionOptions
0000a7a8 t __Z21GetOSStatusFromHerrnoi
0000a808 t __ZN10NLDNSQuery21DomainNameSystemQueryEPNS_11DNSIdleInfoEP13DNSThreadInfoPFPvS4_E
0000a96c t __ZN10NLDNSQuery9DNRThreadEPv
0000aab6 t __ZN10NLDNSQuery14DNSQueryThreadEPv
0000ac2e t __ZN10NLDNSQuery19DNSHostByAddrThreadEPv
0000ad84 t __ZN10NLDNSQuery16GetHostByAddressEhPK10__CFStringP10NLNotifierPS2_
0000ae20 T _NLGetHostByAddress
0000ae9e t __ZN10NLDNSQuery8DNSQueryEPK10__CFStringiiP10NLNotifierPP13NLDNSResponse
0000af6a T _NLQueryDNS
0000b01a t __ZN10NLDNSQuery21DynamicNameResolutionEPK10__CFStringP10NLCFStringP9NLCFArrayPNS_11DNSIdleInfoE
0000b0c8 t __ZNK13NLDNSResponse24GetResourceRecordAtIndexElPPK10__CFStringPsS4_PmPPK8__CFData
0000b18e T _NLDisposeDNSResponse
0000b1a8 T _NLDNSResponseGetResourceRecordCount
0000b1b8 T _NLDNSResponseGetResourceRecordAtIndex
0000b1f6 t __ZN13NLDNSResponseC1Ev
0000b21a t __ZN13NLDNSResponse14CreateResponseEPKhmPPS_
0000b52c t __ZN13NLDNSResponseD1Ev
0000b5c0 t __ZN13NLDNSResponseD0Ev
0000b654 t __ZN6NLHost11GetAsStringEPPK10__CFString
0000b690 t __ZNK6NLHost11GetIPv4HostERm
0000b6be t __ZN6NLHostC1Et
0000b730 t __ZN6NLHostC1Ev
0000b784 t __ZN6NLHostC1EPK7in_addr
0000b7e4 t __ZN6NLHostC1EPK8in6_addr
0000b85c t __ZN9NLMessage4GrowEm
0000b8cc t __ZN9NLMessage13GetConnectionEv
0000b8d4 t __ZN9NLMessageD0Ev
0000b956 t __ZN9NLMessageD1Ev
0000b9d0 t __ZN9NLMessageD2Ev
0000ba4c t __ZN9NLMessageC2ERK11NLClassInfo
0000ba9a T _NLDisposeMessage
0000bb24 t __ZN16NLMessageRequestC2ERK11NLClassInfo
0000bb60 t __ZN16NLMessageRequestC1ERK11NLClassInfo
0000bb9c t __ZN16NLMessageRequest14GetBodyDataPtrElPPKvPm
0000bc00 t __ZN16NLMessageRequest18ReleaseBodyDataPtrElm
0000bc48 t __ZN16NLMessageRequest15GetBodyDataSizeEl
0000bc7e t __ZN16NLMessageRequest13SetConnectionER12NLConnection
0000bc86 t __ZN16NLMessageRequest10AppendDataEPKvm
0000bcd2 t __ZN16NLMessageRequest12AttachBufferER8NLBuffer
0000bd32 t __ZN16NLMessageRequest7ReplaceEmmPKvm
0000be1e t __ZN16NLMessageRequest14StripBlankLineEv
0000be4c t __ZN16NLMessageRequest4SendER12NLConnectionPK6NLHost
0000bf78 T _NLMessageAppendData
0000c028 T _NLMessageAttachBuffer
0000c0e2 T _NLSetMessageAuthOptions
0000c146 t __ZN16NLMessageRequestD2Ev
0000c192 t __ZN16NLMessageRequestD1Ev
0000c1de t __ZN16NLMessageRequestD0Ev
0000c232 T _NLCreateMessage
0000c2a2 t __ZN16NLMessageRequest11AppendLineVEPK10__CFStringPc
0000c3b4 T _NLMessageAppendLine
0000c44e t __ZN16NLMessageRequest10AppendLineEPK10__CFStringz
0000c472 t __ZN16NLMessageRequest10SetHeaderVEPKcPK10__CFStringPc
0000c694 T _NLMessageSetHeader
0000c798 t __ZN16NLMessageRequest12StripHeadersEPKc
0000c7dc t __ZN16NLMessageRequest9SetHeaderEPKcPK10__CFStringz
0000c808 t __ZN16NLMessageRequest23AppendHeaderAtCRLFCRLFVEbPKcPK10__CFStringPc
0000cb28 t __ZN16NLMessageRequest22AppendHeaderAtCRLFCRLFEbPKcPK10__CFStringz
0000cb70 t __ZN16NLMessageRequest11EditCommandEPKcS1_z
0000cce4 t __ZN17NLMessageResponseC2EP12NLConnectionP8NLBufferbRK11NLClassInfo
0000cd74 t __ZN17NLMessageResponseC1EP12NLConnectionP8NLBufferbRK11NLClassInfo
0000ce04 t __ZN17NLMessageResponse22CheckIfHeadersExpectedEPKcm
0000ce16 t __ZN17NLMessageResponse8NextLineEPKc
0000ce60 t __ZN17NLMessageResponse11WaitForDataEv
0000ce8e t __ZN17NLMessageResponse11ReceiveMoreEv
0000d11a t __ZN17NLMessageResponse15ProcessBodyDataEPKcm
0000d13c t __ZN17NLMessageResponse15ReceiveBodyDataEmmPm
0000d17e t __ZN17NLMessageResponse11ParseStatusEPKciPlPPK10__CFString
0000d1a2 t __ZN17NLMessageResponse11ParseHeaderEPKcS1_PiS2_
0000d210 t __ZN17NLMessageResponse16DiscardRemainingEv
0000d21a t __ZN17NLMessageResponseD2Ev
0000d290 t __ZN17NLMessageResponseD1Ev
0000d306 t __ZN17NLMessageResponseD0Ev
0000d384 t __ZN17NLMessageResponse15WaitForBodyDataEm
0000d4a8 T _NLReceiveMore
0000d578 t __ZN17NLMessageResponse9GetStatusEPlPPK10__CFString
0000d624 T _NLMessageGetStatus
0000d6bc t __ZN17NLMessageResponse14FindNextHeaderElPKc
0000d870 t __ZN17NLMessageResponse17GetHeaderAtOffsetElP8StStringS1_
0000d95a t __ZN17NLMessageResponse21GetNextMatchingHeaderERlPKcP8StString
0000d9fe T _NLMessageGetNextMatchingHeader
0000db84 t __ZN17NLMessageResponse9GetHeaderEPKcP8StString
0000dbb4 T _NLMessageGetHeader
0000dd3e t __ZN17NLMessageResponse13GetNextHeaderERlP8StStringS2_
0000dea6 T _NLMessageGetNextHeader
0000e018 t __Z30NLGetThreadIDForCurrentPThreadv
0000e050 t __ZN7NLMutex4GrabEv
0000e0e0 t __ZN7NLMutex7ReleaseEv
0000e114 t __ZN7NLMutex8CondWaitER22_opaque_pthread_cond_t
0000e16a t __ZN7NLMutex15CondWaitTimeoutER22_opaque_pthread_cond_tRK8timespec
0000e1c6 T _NLDisposeCriticalRegion
0000e208 t __ZN7StMutexC1ER7NLMutex
0000e24c t __ZN7StMutexD1Ev
0000e296 t __ZN16NLCriticalRegion4ExitEv
0000e324 T _NLExitCriticalRegion
0000e364 t __ZN16NLCriticalRegion5EnterEl
0000e4aa T _NLEnterCriticalRegion
0000e4f4 t __ZN7StMutexD0Ev
0000e546 t __ZN16NLCriticalRegionD0Ev
0000e5b2 t __ZN16NLCriticalRegionD1Ev
0000e616 t __ZN16NLCriticalRegionC1Eb
0000e6a2 t __Z28CreateCriticalRegionInternalbPP22OpaqueNLCriticalRegion
0000e710 T _NLCreateRecursiveCriticalRegion
0000e722 T _NLCreateCriticalRegion
0000e730 t __ZN16NLNotifierByProc6NotifyEP18OpaqueNLConnectionmlPv
0000e742 T _NLDisposeNotifier
0000e782 t __ZN15NLNotifierStack6NotifyEP18OpaqueNLConnectionmlPv
0000e7ea t __ZN15NLNotifierStack19GeneralNotifierProcEP10NLNotifierPS_P22NLConnectionConcurrent14NLNotificationm
0000e8e0 t __ZN15NLNotifierStack15DNSIdleNotifierEP10NLNotifierP22NLConnectionConcurrentm
0000e912 t __ZN15NLNotifierStack18SocketNotifierProcEPv
0000e962 t __ZN15NLNotifierStack6AttachEP10NLNotifier
0000e9d6 t __ZN15NLNotifierStack9DetachAllEv
0000ea48 t __ZN15NLNotifierStack14CloseNotifiersEv
0000ea88 t __ZN10NLNotifierD0Ev
0000eabe t __ZN10NLNotifierD1Ev
0000eae2 t __ZN10NLNotifierD2Ev
0000eb08 t __ZN10NLNotifierC2EPvRK11NLClassInfo
0000eb4a t __ZN16NLNotifierByProcC1EPvPFlS0_P18OpaqueNLConnection14NLNotificationlS0_E
0000eb88 T _NLCreateNotifier
0000ec14 t __ZN15NLNotifierStackC1Ev
0000ec54 t __ZN15NLNotifierStack13OpenNotifiersEv
0000ec8c t __ZN17NLProxySharedInfo7SetUserEPK10__CFStringS2_
0000ed1a t __ZN17NLProxySharedInfo23CopyGSSAPIPrincipalNameEv
0000ed3c t __ZN17NLProxySharedInfo12CopyPasswordEv
0000ed5e t __ZN17NLProxySharedInfo8CopyUserEv
0000ed80 T _NLDisposeProxy
0000eda0 T _NLGetProxyAddressAndPort
0000ee0c T _NLSetProxyData
0000ee30 t __ZN17NLProxySharedInfo30CopyGSSAPIPrincipalCredentialsEv
0000ee5e t __ZN7NLProxyC1ER17NLProxySharedInfo
0000eece t __ZN17NLProxySharedInfoC1E15NLProxyTypeEnum
0000ef2e t __ZN7NLProxy10SetAddressEPK10__CFStringt
0000ef66 t __ZN7NLProxy6CreateEPK10__CFStringtR17NLProxySharedInfoPPS_
0000f030 t __ZN7NLProxy6CreateE15NLProxyTypeEnumPK10__CFStringtPPS_
0000f0be T _NLCreateProxy
0000f12e t __ZN7NLProxyD0Ev
0000f1c2 t __ZN7NLProxyD1Ev
0000f24e t __ZN17NLProxySharedInfo18SetGSSAPIPrincipalEPK10__CFStringP11NLGSSCredID
0000f2ca T _NLSetGSSAPIProxyData
0000f2f6 t __ZN17NLProxySharedInfoD0Ev
0000f392 t __ZN17NLProxySharedInfoD1Ev
0000f428 t __ZN10NLProxyMgr11CreateProxyEPK14__CFDictionaryPK10__CFStringS5_S5_t15NLProxyTypeEnumPP17NLProxySharedInfoPS5_Pt
0000f55c t __ZN10NLProxyMgr14DisposeProxiesEv
0000f6a6 t __ZN10NLProxyMgrD0Ev
0000f706 t __ZN10NLProxyMgrD1Ev
0000f75e t __ZN10NLProxyMgrC1Ev
0000f882 t __ZN10NLProxyMgr12CloseServiceEv
0000f8f8 t __ZN10NLProxyMgr23UseProxyForHostInternalER13NLAddressInet
0000fa42 t __ZN10NLProxyMgr16GetProxyInternalE15NLProxyTypeEnumP13NLAddressInetPhPP7NLProxy
0000fb52 t __ZN10NLProxyMgr19ParseNoProxyDomainsEPK9__CFArray
0000ff42 t __ZN10NLProxyMgr11ReadProxiesEv
0001017e t __ZN10NLProxyMgr13NotifierEntryEPvP18OpaqueNLConnection14NLNotificationlS0_
000101e4 t __ZN10NLProxyMgr11OpenServiceEv
0001030e t __ZN10NLProxyMgr15UseProxyForHostEP13NLAddressInetP10NLNotifierPh
000103ca T _NLUseProxyForHost
00010456 t __ZN10NLProxyMgr8GetProxyE15NLProxyTypeEnumP13NLAddressInetP10NLNotifierPhPP7NLProxy
00010544 T _NLGetSOCKSProxy
000105fa T _NLGetSecureProxy
000106b0 T _NLGetHTTPProxy
00010766 T _NLGetFTPProxy
0001081c t __Z27_NL_RemoteCallThreadReceiveP16__CFRunLoopTimerPv
00010894 t __ZN10NLNotifier25ReceiveRemoteNotificationEPv
000108d0 T _NLGetRemoteCallMachProc
000108d8 T _NLRemoteCallThread
00010b48 T _NLNotifyThread
00010c06 t __ZN8NLSocketC1EPFlPvES0_
00010c3c t __ZN8NLSocket4OpenEiii
00010cba t __ZN8NLSocket5CloseEv
00010d00 t __ZN8NLSocket6ListenEi
00010d2c t __ZN8NLSocket7ConnectERK6NLHost
00010dc2 t __ZN8NLSocket15ResetConnectionERK6NLHosti
00010e1e t __ZN8NLSocket12SetKeepAliveEb
00010e72 t __ZN8NLSocket17ResetCancellationEv
00010e7e t __ZN8NLSocket4BindERK6NLHost
00010ebc t __ZN8NLSocketD1Ev
00010ed8 t __ZN8NLSocketD0Ev
00010f06 t __ZN8NLSocket6AcceptEPS_
00011050 t __ZN8NLString16DisposeBufferMemEv
000110ae t __ZN8NLString14SetSizePrivateEm
0001110e t __ZN8NLString14SetTextPrivateEPKcm
00011168 t __ZN8StString7SetSizeEm
000111d0 t __ZN8StString3SetEPK10__CFStringm
00011240 t __ZN8StString3SetEPKcm
0001129c t __ZN8StString12SetFormattedEPKcz
000112fe t __ZN8StString20SetFormattedWithArgsEPK10__CFStringPc
00011360 t __ZN8StString12SetFormattedEPK10__CFStringz
00011384 t __ZN8StString6AppendEPKcm
0001143c t __ZN8StString6AppendERS_
0001147c t __ZN8NLStringD1Ev
000114e4 t __ZN8NLStringD0Ev
00011552 t __ZN8StStringC1Ev
00011586 t __ZN8StStringC1EmPKc
00011616 t __ZN8StStringC1EPKcPc
000116a8 t __ZN8NLString18SetCFStringPrivateEPK10__CFStringm
00011774 t __ZN8StString3SetER8NLString
000117e4 t __ZN8StStringC1ER8NLString
00011844 t __ZN5NLURL6SetURLEPK7__CFURL
00011878 t __ZN5NLURL6SetURLEPK10__CFStringb
00011936 t __ZN5NLURL6SetURLEPKcb
00011a08 t __ZNK5NLURL10GetPortNumEv
00011a26 t __ZNK5NLURL11GetHostNameEPPK10__CFString
00011a5e t __ZNK5NLURL27GetPathAndResourceSpecifierEPPK10__CFString
00011b1a t __ZN5NLURL6DetachEv
00011b2c t __ZNK5NLURL10IsAbsoluteEv
00011b5c t __ZN5NLURL24CopyDirectoryPathFromURLEPK7__CFURLPPK10__CFString
00011bec t __ZNK5NLURL13IsMissingPathEv
00011c86 t __ZN5NLURL17CreateAbsoluteURLEP12NLConnectionPKc
00011e8c t __ZN5NLURL22AddMissingPathIfNeededEv
00011efc t __ZN5NLURL14FixURLIfNeededEP12NLConnectionPKc
00011f58 t __ZN5NLURLD0Ev
00011fb4 t __ZNK5NLURL8IsSchemeEPK10__CFString
0001200e t __ZN5NLURLC1Ev
0001202c t __ZN5NLURLD1Ev
00012082 t __ZN5NLURL11CreateCFURLEPK10__CFStringS2_sPKcPPK7__CFURL
000121c8 t __ZN5Lexer10GetKeyWordEPKcRK10regmatch_t
0001223e t __ZN5Lexer10LexIntegerEPKcS1_
000122ce t __ZN7UNetLib14CloseParseUtilEv
00012318 t __ZN5Lexer5MatchEPKcS1_P10regmatch_tm
00012392 t __ZN5LexerC1EPKcPS1_mi
00012418 t __ZN7UNetLib13OpenParseUtilEv
000124f4 t __Z22GetIPAddressesFromListPKvS0_Pv
000125be t __Z24MySCNotificationCallbackPK16__SCDynamicStorePK9__CFArrayPv
00012826 t __ZN7UNetLib16CloseSCUtilitiesEv
00012896 t __ZN7UNetLib15OpenSCUtilitiesEv
00012ab8 t __ZN17StSOCKSv4Response7ReceiveEPi
00012b2a t __ZN17StSOCKSv5Response7ReceiveEmiPh
00012ba2 t __ZN16StSOCKSv5Request8SendFQDNEisR13NLAddressInetP22NLConnectionConcurrent
00012d02 t __ZN16StSOCKSv4Request18SendWithDomainNameEisR13NLAddressInetP22NLConnectionConcurrent
00012e3a t __ZN16StSOCKSv5Request8SendIPv4EisR13NLAddressInetP22NLConnectionConcurrent
00012fca t __ZN16StSOCKSv4Request9SendBasicEisR13NLAddressInetP22NLConnectionConcurrent
00013110 t __ZN7UNetLib12CloseLibraryEv
000131d4 t __ZN7UNetLib11ClearCachesEv
00013206 T _NLLibraryClose
00013210 T _NLLibrarySetUserAgent
0001324a T _NLLibrarySetAcceptLanguage
00013284 T _NLLibraryClearCaches
000132e0 t __ZN7UNetLib11OpenLibraryEm
000135de T _NLLibraryOpen
000135f0 t __ZN9UUnixUtil25GetOSStatusFromUnixStatusEl
000138c0 t __ZN7AuthCtx20ClearProxyCredsOwnerEv
000138e6 t __ZN7AuthCtx5FInitEPK12NLConnectionP18NLCredentialsBlockb
000138fa t __ZN7AuthCtx12GetAuthStateEv
00013904 t __ZN7AuthCtx24IsSessionBasedAuthSchemeEv
0001390c t __ZN7AuthCtx10TrimQuotesEPPKcPm
00013944 t __ZN7AuthCtx14TrimWhiteSpaceEPPKcPm
000139b6 t __ZN7AuthCtx17GetDelimitedTokenEPPKcPmS2_S3_c
00013a72 t __ZN7AuthCtx20AuthSchemeFromStringER12NLConnectionPKc
00013b0c t __ZN7AuthCtx21FInitAuthRequiredInfoER12NLConnectionR20NLMessageRequestHTTPR17NLMessageResponseP18NLAuthRequiredInfo
00013ba0 t __ZN7AuthCtx18SetProxyCredsOwnerEP7NLProxy
00013be4 t __ZN7AuthCtx5AllocE16NLAuthSchemeEnum
00013c8c t __ZN7AuthCtx6CreateERK12NLConnectionR18NLCredentialsBlockb
00013cf4 t __ZN7AuthCtx15GetKeyValuePairEPKcmPS1_PmS2_S3_
00013e4a t __ZN7AuthCtx19ParseAuthHeaderDataEPKcS1_PPcbb
00014092 t __ZN7AuthCtx17GetAuthHeaderDataER17NLMessageResponsebPKcS3_PPcbRl
000141ec t __ZN7AuthCtx6CreateER12NLConnectionR20NLMessageRequestHTTPR17NLMessageResponselb
00014514 t __ZN7AuthCtxC2Ev
00014538 t __ZN7AuthCtxD2Ev
0001458e t __ZN7AuthCtxD1Ev
000145e4 t __ZN7AuthCtxD0Ev
00014640 t __ZN13AuthCtx_BasicC1Ev
00014668 t __ZN13AuthCtx_Basic13GetAuthSchemeEv
00014672 t __ZN13AuthCtx_Basic14AuthOnResponseER12NLConnectionR20NLMessageRequestHTTPR17NLMessageResponsel
0001473a t __ZN13AuthCtx_BasicD1Ev
00014756 t __ZN13AuthCtx_BasicD0Ev
00014784 t __ZN13AuthCtx_Basic13AuthOnRequestER12NLConnectionR20NLMessageRequestHTTP
000149a0 t __ZN14AuthCtx_Digest5FInitEPK12NLConnectionP18NLCredentialsBlockb
000149ec t __ZN14AuthCtx_Digest13GetAuthSchemeEv
000149f6 t __Z6CvtHexPcS_
00014a48 t __ZN14AuthCtx_Digest18FParseDigestDomainEPKc
00014c2c t __ZN14AuthCtx_Digest19FCalcResponseStringEPKcS1_PK10__CFStringS1_S1_P8StString
000153aa t __ZN14AuthCtx_DigestC1Ev
000153d6 t __ZN14AuthCtx_Digest15FParseChallengeEPKc
00015750 t __ZN14AuthCtx_Digest14AuthOnResponseER12NLConnectionR20NLMessageRequestHTTPR17NLMessageResponsel
00015850 t __ZN14AuthCtx_DigestD1Ev
0001586c t __ZN14AuthCtx_DigestD0Ev
0001589a t __ZN14AuthCtx_Digest27FGetConditionalParamsStringEPK10__CFStringS2_PKcS4_P8StString
000159da t __ZN14AuthCtx_Digest13AuthOnRequestER12NLConnectionR20NLMessageRequestHTTP
00015fdc t __ZN12AuthCtx_NTLM9ClearDataEv
0001606a t __ZN12AuthCtx_NTLMC1Ev
000160c8 t __ZN12AuthCtx_NTLM13GetAuthSchemeEv
000160d2 t __ZN12AuthCtx_NTLM12GetAuthStateEv
000160e8 t __ZN12AuthCtx_NTLM24IsSessionBasedAuthSchemeEv
000160f2 t __ZN12AuthCtx_NTLM19FReadNTLMAuthHeaderER17NLMessageResponselP8StStringP8AuthCode
000161d6 T _NLCreateNTLMNegotiationMessage
00016216 t __ZN12AuthCtx_NTLM15FSetUserAndPassEPK10__CFStringS2_S2_
0001638e t __ZN12AuthCtx_NTLM13AuthOnRequestER12NLConnectionR20NLMessageRequestHTTP
000166a4 t __ZN12AuthCtx_NTLMD1Ev
000166e8 t __ZN12AuthCtx_NTLMD0Ev
00016734 T _NLCreateNTLMAuthenticationMessage
00016c4a t __ZN12AuthCtx_NTLM14AuthOnResponseER12NLConnectionR20NLMessageRequestHTTPR17NLMessageResponsel
00017006 t __ZN12AuthCtx_NTLM19FCollectCredentialsER12NLConnectionR20NLMessageRequestHTTPR17NLMessageResponse
000172b4 t __ZN13NLCredentials23CastToGSSAPICredentialsEv
000172bc t __ZN13NLCredentials25CastToUserPassCredentialsEv
000172c4 t __ZN13NLCredentialsD0Ev
000172f2 t __ZN13NLCredentialsD1Ev
0001730e t __ZN13NLCredentialsD2Ev
0001732a t __ZN13NLCredentialsC2ERK11NLClassInfo
00017388 t __ZN18NLCredentialsBlock15CompareHostNameEPK10__CFString
000173ae t __ZN18NLCredentialsBlock28CastToDigestCredentialsBlockEv
000173b6 t __ZN18NLCredentialsBlock28CastToGSSAPICredentialsBlockEv
000173be t __ZN18NLCredentialsBlock30CastToUserPassCredentialsBlockEv
000173c6 t __ZN18NLCredentialsBlock5FInitE16NLAuthSchemeEnumPK10__CFStringtPK7__CFURLS3_
00017488 t __ZN18NLCredentialsBlockD0Ev
000174f2 t __ZN18NLCredentialsBlockD1Ev
00017554 t __ZN18NLCredentialsBlockD2Ev
000175b6 t __ZN18NLCredentialsBlock8MatchURLEPK7__CFURL
0001767a t __ZN18NLCredentialsBlock6AddURLEPK7__CFURL
00017790 t __ZN18NLCredentialsBlockC2ERK11NLClassInfo
00017808 t __ZN13Private_Cache10EmptyCacheEv
00017848 t __ZN18NLCredentialsCache6CreateE16NLAuthSchemeEnumPK10__CFStringtPK7__CFURLS3_P13NLCredentials
000178d6 t __ZN18NLCredentialsCache12CloseServiceEv
00017900 t __ZN13Private_Cache16ReleaseEveryItemEv
00017948 t __ZN13Private_Cache19FindPositionForHostEPK10__CFString
000179a4 t __ZN13Private_Cache4FindE16NLAuthSchemeEnumPK10__CFStringtPK7__CFURLS3_
00017b0a t __ZN13Private_Cache3AddEP18NLCredentialsBlock
00017bb2 t __ZN13Private_CacheD0Ev
00017c1e t __ZN13Private_CacheD1Ev
00017c82 t __ZN13Private_CacheC1Ev
00017ce2 t __ZN18NLCredentialsCache5FInitEv
00017d2e t __ZN18NLCredentialsCacheD0Ev
00017d82 t __ZN18NLCredentialsCacheD1Ev
00017dce t __ZN18NLCredentialsCacheC1Ev
00017e06 t __ZN18NLCredentialsCache11CreateCacheEPPS_
00017e7e t __ZN18NLCredentialsCache11OpenServiceEv
00017e9e t __ZN18NLCredentialsCache16ClearGlobalCacheEv
00017ef4 t __ZN18NLCredentialsCache27GetCredentialsForNTLMDomainEPK10__CFString
00018004 t __ZN18NLCredentialsCache14GetCredentialsEbPK7__CFURLP13NLAddressInett16NLAuthSchemeEnumPK10__CFStringP13NLCredentials
00018174 t __ZN18NLCredentialsCache15CopyCredentialsEPK7__CFURLP13NLAddressInettPK10__CFStringP18NLCredentialsBlock
000181e2 t __ZN18NLCredentialsCache20GetCredentialsForFTPEbP13NLAddressInettPK10__CFString
0001835e t __ZN18NLCredentialsCache14GetCredentialsEbR20NLMessageRequestHTTPR12NLConnection16NLAuthSchemeEnumPK10__CFString
000183ec t __ZN18NLCredentialsCache28GetCredentialsForHTTPPreAuthEbR20NLMessageRequestHTTPR12NLConnection
000184a4 t __ZN24NLDigestCredentialsBlock8SetNonceEPK10__CFString
0001850a t __ZN24NLDigestCredentialsBlock9SetOpaqueEPKc
0001859a t __ZN24NLDigestCredentialsBlock17GetNextNonceCountEv
000185e4 t __ZN24NLDigestCredentialsBlock28CastToDigestCredentialsBlockEv
000185ec t __ZN24NLDigestCredentialsBlock5FInitE16NLAuthSchemeEnumPK10__CFStringtPK7__CFURLS3_
0001863e t __ZN24NLDigestCredentialsBlock15SetDigestDomainEPK7__CFURL
000187e8 t __ZN24NLDigestCredentialsBlock8SetNonceEPKc
00018874 t __ZN24NLDigestCredentialsBlockD1Ev
00018944 t __ZN24NLDigestCredentialsBlockD0Ev
00018a1c t __ZN24NLDigestCredentialsBlockC1ER21NLUserPassCredentialsRK11NLClassInfo
00018afc t __ZN24NLDigestCredentialsBlock6CreateEPK10__CFStringtPK7__CFURLS2_P13NLCredentials
00018bf0 t __Z35NL_CFStringCreateWithWindowsUnicodePKct
00018c3e t __Z26ReadServerChallengeMessagePKcmPPK10__CFStringPhPmPPcPtS6_S5_
00018ee6 t __Z18PrepareSignSealKeyPhiPKcPPK8__CFData
0001901c t __Z13LoadTheStringPPhPKhPvP11_NTLMSTRINGS_t
00019094 t __Z13Parse_AV_PAIRPP7AV_PAIRPKhtPPK10__CFString
00019110 t __Z31NTLM_ReadServerChallengeMessagebPKcmPPK10__CFStringPhPmPPcPtS6_S5_
000191fe t __Z19NTLM_ReadTargetInfoPKhtPPK10__CFStringS4_S4_S4_
0001936e t __Z21NL_CFStringGetUnicodePK10__CFStringPPcPm
00019406 t __Z23NTLM_FormatNegotiateMsgbm
00019526 t __Z37NL_CFStringGetWindowsUnicodeUpperCasePK10__CFStringPPcPm
00019596 t __Z35NTLMv2_PrepareAuthenticationMessagePK10__CFStringS1_S1_S1_PKhPKctmbP14NLNTLMAuthKeysPPKv
0001a4c4 t __Z19SixBit_DecodeStreamPhPlPKclPKhS_S0_
0001a614 t __Z18Base64_DecodeBytesPKcPcPhPl
0001a6e6 t __Z18SixBit_EncodeBytesPKhlPKcPcPl
0001a814 t __Z18Base64_EncodeBytesPKhlPcPl
0001a83c t _NLMD4Init
0001a86e t __Z6EncodePhPmj
0001a8b6 t __Z12MD4TransformPmPh
0001ae1e t _NLMD4Update
0001aee8 t _NLMD4Final
0001af80 t __ZN9NLCFArrayC1Ev
0001afa8 t __ZN9NLCFArray9SetValuesEPPKvlPK16CFArrayCallBacks
0001b042 t __ZN9NLCFArray10SetCFArrayEPK9__CFArray
0001b0c6 t __ZN15StCFArrayAccessC1ER9NLCFArray
0001b0f4 t __ZN15StCFArrayAccessD0Ev
0001b122 t __ZN9NLCFArrayD1Ev
0001b13e t __ZN9NLCFArrayD0Ev
0001b16c t __ZN15StCFArrayAccessD1Ev
0001b18a t __ZN16NLCFMutableArrayC1Ev
0001b1ea t __ZN22StCFMutableArrayAccessC1ER16NLCFMutableArray
0001b218 t __ZN22StCFMutableArrayAccessD0Ev
0001b246 t __ZN16NLCFMutableArrayD1Ev
0001b262 t __ZN16NLCFMutableArrayD0Ev
0001b290 t __ZN22StCFMutableArrayAccessD1Ev
0001b2ac t __ZN10NLCFStringC1Ev
0001b2d4 t __ZN10NLCFString6LengthEv
0001b32c t __ZN10NLCFString7SetTextEPKcm
0001b3d4 t __ZN10NLCFString11SetCFStringEPK10__CFString
0001b456 t __ZN10NLCFString10CopyStringEv
0001b4b2 t __ZN10NLCFString7CompareEPK10__CFStringm
0001b534 t __ZN16StCFStringAccessC1ER10NLCFString
0001b562 t __ZN16StCFStringAccess5CFRefEv
0001b570 t __ZN10StCFString9SetStringEPK10__CFString
0001b5be t __ZN10StCFString9SetStringEPKcm
0001b61c t __ZN10NLCFStringD1Ev
0001b638 t __ZN10NLCFStringD0Ev
0001b666 t __ZN16StCFStringAccessD1Ev
0001b682 t __ZN16StCFStringAccessD0Ev
0001b6b0 t __ZN10StCFStringD0Ev
0001b706 t __ZN10StCFStringC1Ev
0001b722 t __ZN10StCFStringC1EPK10__CFString
0001b73e t __ZN10StCFStringC1ER10NLCFString
0001b780 t __ZN10StCFStringD1Ev
0001b7d0 t __ZN14StCFTypeAccessD0Ev
0001b824 t __ZN8NLCFTypeD1Ev
0001b8c4 t __ZN8NLCFTypeD2Ev
0001b966 t __ZN8NLCFTypeC2Ev
0001b98c t __ZN8NLCFTypeD0Ev
0001ba34 t __ZN14StCFTypeAccessC2ER8NLCFType
0001ba7c t __ZN14StCFTypeAccessD2Ev
0001baca t __ZN14StCFTypeAccessD1Ev
0001bb18 t __ZN21NLConnectionDataLayer22CountRawBytesAvailableERm
0001bb36 t __ZNK21NLConnectionDataLayer15GetSecurityInfoER14NLSecurityInfoPPK8__CFData
0001bb52 t __ZN21NLConnectionDataLayerC2ER18NLSocketConcurrent
0001bb6e t __ZN21NLConnectionDataLayer4OpenER18NLSocketConcurrentR12NLConnectionP13NLAddressInetmPPS_
0001bbbc t __ZN24NLConnectionRawDataLayer4SendEPK6NLHostPKvmRmS5_
0001bc10 t __ZN24NLConnectionRawDataLayer11WaitForDataEm
0001bc22 t __ZN24NLConnectionRawDataLayer7ReceiveEPvmmPm
0001bc34 t __ZN25NLConnectionSSL2DataLayerC1ER12NLConnectionR18NLSocketConcurrent
0001bd2c t __ZN25NLConnectionSSL2DataLayer21CreateClientMasterKeyEPPhPmP15SSL2ClientState
0001bf94 t __ZN25NLConnectionSSL2DataLayer20CreateClientFinishedEPPhPmP15SSL2ClientState
0001bfea t __ZN25NLConnectionSSL2DataLayer21ProcessServerFinishedEPKhmP15SSL2ClientState
0001c056 t __ZN25NLConnectionSSL2DataLayer13ResumeSessionEP12NLSSLSessionPS1_
0001c0a6 t __ZN25NLConnectionSSL2DataLayer5CloseEb
0001c104 t __ZNK25NLConnectionSSL2DataLayer6IsOpenEv
0001c116 t __ZNK25NLConnectionSSL2DataLayer15GetSecurityInfoER14NLSecurityInfoPPK8__CFData
0001c144 t __ZN25NLConnectionSSL2DataLayer10ComputeMacEhPKhmPh
0001c246 t __ZN25NLConnectionSSL2DataLayer18ProcessClientHelloEPcP15SSL2ClientState
0001c2b6 t __ZN25NLConnectionSSL2DataLayer17CreateClientHelloEPPcPmP12NLSSLSession
0001c3d6 t __ZN25NLConnectionSSL2DataLayerD1Ev
0001c448 t __ZN25NLConnectionSSL2DataLayerD0Ev
0001c4c2 t __ZN25NLConnectionSSL2DataLayer18ProcessServerHelloEPcmhP15SSL2ClientState
0001c8b6 t __ZN25NLConnectionSSL2DataLayer15BeginEncryptionEv
0001cc1a t __ZN25NLConnectionSSL2DataLayer19DecryptCipherBufferEv
0001cf1c t __ZN25NLConnectionSSL2DataLayer19ReceiveAllAvailableEh
0001d0ea t __ZN25NLConnectionSSL2DataLayer11WaitForDataEm
0001d126 t __ZN25NLConnectionSSL2DataLayer19CountBytesAvailableERm
0001d15e t __ZN25NLConnectionSSL2DataLayer20EnsureBytesAvailableEm
0001d1a0 t __ZN25NLConnectionSSL2DataLayer7ReceiveEPvmmPm
0001d23e t __ZN25NLConnectionSSL2DataLayer16ReceiveOneRecordEv
0001d3b8 t __ZN25NLConnectionSSL2DataLayer8SendDataEPKvmRmS2_
0001d790 t __ZN25NLConnectionSSL2DataLayer4SendEPK6NLHostPKvmRmS5_
0001d7b4 t __ZN25NLConnectionSSL2DataLayer12SendBlockingEPKvm
0001d836 t __ZN25NLConnectionSSL2DataLayer10FinishOpenEPcS0_mPP12NLSSLSession
0001dbfc t __ZN25NLConnectionSSL3DataLayerC2ER12NLConnectionR18NLSocketConcurrent
0001dd12 t __ZN25NLConnectionSSL3DataLayerC1ER12NLConnectionR18NLSocketConcurrent
0001de28 t __ZN25NLConnectionSSL3DataLayer21DeleteConnectionStateEP19SSL3ConnectionState
0001deb0 t __ZN25NLConnectionSSL3DataLayer19ComputeMasterSecretEPKh
0001e114 t __Z19NLSSLHostNamesMatchPK10__CFStringS1_
0001e286 t __ZN25NLConnectionSSL3DataLayer23CreateClientCertificateEPPcPmP15SSL3ClientState
0001e2e4 t __ZNK25NLConnectionSSL3DataLayer6IsOpenEv
0001e2f6 t __ZNK25NLConnectionSSL3DataLayer15GetSecurityInfoER14NLSecurityInfoPPK8__CFData
0001e324 t __ZN25NLConnectionSSL3DataLayer10ComputeMacEPK19SSL3ConnectionStatePKhthPh
0001e560 t __ZN25NLConnectionSSL3DataLayer18ProcessClientHelloEPKchP15SSL3ClientState
0001e618 t __ZN25NLConnectionSSL3DataLayer20CreateClientFinishedEPPcPmPKhmP15SSL3ClientState
0001e6ee t __ZN25NLConnectionSSL3DataLayer22BufferHandshakeMessageEP14OpaqueNLBufferPKcPKmh
0001e766 t __ZN25NLConnectionSSL3DataLayer17CreateClientHelloEPPcPmtP12NLSSLSession
0001e86c t __ZN25NLConnectionSSL3DataLayer23CreateClientKeyExchangeEPPcPmP15SSL3ClientState
0001e9c0 t __ZN25NLConnectionSSL3DataLayer20GetDERLengthEncodingEmPh
0001e9f8 t __ZN25NLConnectionSSL3DataLayer13ResumeSessionEP12NLSSLSessionPS1_
0001ea48 t __ZN25NLConnectionSSL3DataLayerD2Ev
0001eb0c t __ZN25NLConnectionSSL3DataLayerD1Ev
0001ebd0 t __ZN25NLConnectionSSL3DataLayerD0Ev
0001ec9c t __ZN25NLConnectionSSL3DataLayer18ProcessServerHelloEPKcmP15SSL3ClientState
0001ee72 t __ZN25NLConnectionSSL3DataLayer21ComputeFinishedDigestEhPKhmPPhPm
0001f128 t __ZN25NLConnectionSSL3DataLayer18ComputeKeyMaterialEv
0001f814 t __Z34NLSSLCertVerificationFailureNotifyR12NLConnectionmmP23OpaqueSecCertificateRefm
0001f920 t _NLSSLCertTrustCallback
0001fd02 t __ZN25NLConnectionSSL3DataLayer8SendDataE15SSL3ContentTypePKvmRmS3_
0002010e t __ZN25NLConnectionSSL3DataLayer4SendEPK6NLHostPKvmRmS5_
00020192 t __ZN25NLConnectionSSL3DataLayer12SendBlockingE15SSL3ContentTypePKvm
0002021c t __ZN25NLConnectionSSL3DataLayer22ChangeClientCipherSpecEv
0002033e t __ZN25NLConnectionSSL3DataLayer24ProcessServerCertificateEPKcmP15SSL3ClientState
000205a8 t __ZN25NLConnectionSSL3DataLayer24ProcessServerKeyExchangeEPKcmP15SSL3ClientState
000208c8 t __ZN25NLConnectionSSL3DataLayer22ProcessServerHelloDoneEPKcmP15SSL3ClientState
0002097a t __ZN25NLConnectionSSL3DataLayer22ChangeServerCipherSpecEv
00020aa2 t __ZN25NLConnectionSSL3DataLayer21ProcessServerFinishedEPKcPKhm
00020b80 t __ZN25NLConnectionSSL3DataLayer19DecryptCipherBufferEv
00020ff2 t __ZN25NLConnectionSSL3DataLayer19ReceiveAllAvailableEh
00021220 t __ZN25NLConnectionSSL3DataLayer11WaitForDataEm
00021258 t __ZN25NLConnectionSSL3DataLayer19CountBytesAvailableERm
0002128e t __ZN25NLConnectionSSL3DataLayer20EnsureBytesAvailableE15SSL3ContentTypem
00021324 t __ZN25NLConnectionSSL3DataLayer7ReceiveEPvmmPm
00021418 t __ZN25NLConnectionSSL3DataLayer23ReceiveHandshakeMessageEPPcPm
000215d6 t __ZN25NLConnectionSSL3DataLayer10FinishOpenEPcS0_mPP12NLSSLSession
00021c64 t __ZN25NLConnectionSSL3DataLayer5CloseEb
00021cf0 t __ZN25NLConnectionTLS1DataLayer6P_hashEmPKhmS1_mPhmh
00021fa2 t __ZN25NLConnectionTLS1DataLayer3PRFEPKhmPKcS1_mPhm
000220a2 t __ZN25NLConnectionTLS1DataLayer19ComputeMasterSecretEPKh
0002218e t __ZN25NLConnectionTLS1DataLayer10ComputeMacEPK19SSL3ConnectionStatePKhthPh
00022306 t __ZN25NLConnectionTLS1DataLayer21ComputeFinishedDigestEhPKhmPPhPm
00022510 t __ZN25NLConnectionTLS1DataLayer18ComputeKeyMaterialEv
00022930 t __ZNK12NLSSLSession12GetSessionIDEPhS0_
00022970 t __ZN12NLSSLSession12SetSessionIDEmPKh
000229a8 t __ZN12NLSSLSession17FSessionIDMatchesEmPKh
000229ea t __ZNK12NLSSLSession18GetCertificateDataEPmPPh
00022a02 t __ZN12NLSSLSession18SetCertificateDataEmPKh
00022a4c t __ZN12NLSSLSession18GetServerPublicKeyEv
00022a8e t __ZN12NLSSLSession18SetServerPublicKeyEP8cssm_key
00022ac6 t __ZN12NLSSLSession17GetSSL2CipherSpecEv
00022ad2 t __ZN12NLSSLSession17SetSSL2CipherSpecEPK14SSL2CipherSpec
00022ae0 t __ZN12NLSSLSession17GetSSL3CipherSpecEv
00022aec t __ZN12NLSSLSession17SetSSL3CipherSpecEPK14SSL3CipherSpec
00022afa t __ZNK12NLSSLSession16GetSSL2MasterKeyEv
00022b06 t __ZN12NLSSLSession16SetSSL2MasterKeyEmPKh
00022b42 t __ZN12NLSSLSession13GetSSL2KeyArgEPmPh
00022b70 t __ZN12NLSSLSession13SetSSL2KeyArgEmPKh
00022b9c t __ZNK12NLSSLSession19GetSSL3MasterSecretEv
00022ba8 t __ZN12NLSSLSession19SetSSL3MasterSecretEmPKh
00022be4 t __ZNK12NLSSLSession15GetSecurityInfoER14NLSecurityInfoPPK8__CFData
00022c42 t __ZN12NLSSLSession29SetCertificateVerificationErrEm
00022c50 t __ZN12NLSSLSession10SetAddressEP13NLAddressInet
00022c8e t __ZN12NLSSLSessionD0Ev
00022d38 t __ZN12NLSSLSessionD1Ev
00022ddc t __ZN12NLSSLSessionC1Et
00022e74 t __ZN17NLSSLSessionCache14ReleaseSessionEPK13__CFAllocatorPKv
00022e84 t __ZN17NLSSLSessionCache10AddSessionEP12NLSSLSession
00022efa t __ZN17NLSSLSessionCache13RetainSessionEPK13__CFAllocatorPKv
00022f20 t __ZN17NLSSLSessionCache11FindSessionEP13NLAddressInet
0002302e t __ZN17NLSSLSessionCacheD0Ev
000230a8 t __ZN17NLSSLSessionCacheD1Ev
0002311c t __ZN17NLSSLSessionCacheC1Ev
0002318c t __ZN15NLConnectionFTPC1EP7NLProxyP15NLClientContextPK10__CFString
0002321c t __ZN15NLConnectionFTP11WaitForDataEv
0002324e t __ZN15NotifierFTPData6NotifyEP18OpaqueNLConnectionmlPv
00023272 t __ZN15NLConnectionFTP20AcceptDataConnectionEv
000232a4 t __ZN15NLConnectionFTP14ReceiveAllDataER8NLBufferm
00023326 t __ZN15NLConnectionFTP20AddToConnectionCacheEv
00023330 t __ZN15NLConnectionFTP19CloseDataConnectionEv
00023396 t __ZN15NLConnectionFTP11SendAllDataER8NLBuffer
00023434 t __ZN15NLConnectionFTP14SetCredentialsEPK10__CFStringS2_S2_
000235a8 t __ZN15NLConnectionFTP14GetCredentialsEPPK10__CFStringS3_S3_
000237b4 t __ZN15NLConnectionFTP21GetInitialCredentialsEPK10__CFStringS2_S2_PS2_S3_S3_
00023986 t __ZN15NLConnectionFTPD1Ev
000239ee t __ZN15NLConnectionFTPD0Ev
00023a5e t __ZN15NLConnectionFTP20SendCommandWithReplyEPlPPK10__CFStringS3_z
00023cae t __ZN15NLConnectionFTP4QUITEv
00023d18 t __ZN15NLConnectionFTP4NOOPEv
00023d7a t __ZN15NLConnectionFTP4RESTEm
00023de2 t __ZN15NLConnectionFTP4PASVEPmPt
0002401c t __ZN15NLConnectionFTP4PORTEmt
000240b2 t __ZN15NLConnectionFTP18OpenDataConnectionEv
00024356 t __ZN15NLConnectionFTP24SendCommandWithParameterEPK10__CFStringS2_PS2_
000243c4 t __ZN15NLConnectionFTP15ReceiveResponseEPlb
000244bc t __ZN15NLConnectionFTP16ArbitraryCommandEPK10__CFStringbP8NLBufferPlPS2_
000245f0 t __ZN15NLConnectionFTP7GetFileEPK10__CFStringP8NLBufferbbmPP17NLMessageResponse
000247d2 t __ZN15NLConnectionFTP5LoginEPK10__CFStringS2_S2_
00024b1a t __ZN15NLConnectionFTP7ReceiveEPvmmPm
00024bc8 t __ZN20NLFTPConnectionCache10ClearCacheEv
00024c24 t __ZN20NLFTPConnectionCache23LimitConnectionsPerHostEP13NLAddressInett
00024cc4 t __ZN20NLFTPConnectionCache22GetConnection_InternalEP15NLClientContextP13NLAddressInettS3_tPK10__CFStringP10NLNotifierPP15NLConnectionFTP
00024e96 t __ZN20NLFTPConnectionCache13GetConnectionEP15NLClientContextP13NLAddressInettS3_tPK10__CFStringP10NLNotifierPP15NLConnectionFTP
00024f42 t __ZN25NLFTPConnectionCacheEntryC1EP15NLConnectionFTP
00024f8c t __ZN20NLFTPConnectionCache22AddConnection_InternalEP15NLConnectionFTP
000250a0 t __ZN20NLFTPConnectionCache13AddConnectionEP15NLConnectionFTP
0002513e t __ZN25NLFTPConnectionCacheEntryD1Ev
00025198 t __ZN25NLFTPConnectionCacheEntryD0Ev
000251f8 t __ZN20NLFTPConnectionCacheD0Ev
0002526e t __ZN20NLFTPConnectionCacheD1Ev
000252de t __ZN20NLFTPConnectionCacheC1Ev
00025328 t __ZN20NLFTPConnectionCache11CreateCacheEPPS_
00025386 t __ZN20NLMessageResponseFTPC1EP12NLConnectionP8NLBufferb
000253d8 t __ZN20NLMessageResponseFTP19WaitForEndOfMessageEPPK10__CFString
000254c4 t __ZN20NLMessageResponseFTP11ParseStatusEPKciPlPPK10__CFString
00025624 T _NLFTPSendCommandWithData
00025724 T _NLFTPSendCommand
0002582a T _NLFTPGetFile
00025974 T _NLFTPCreateConnection
00025bea t __ZN16NLConnectionHTTPC1EP7NLProxyP15NLClientContext
00025c44 t __ZN16NLConnectionHTTPD0Ev
00025cac t __ZN16NLConnectionHTTP13SetPersistentEb
00025cbe t __ZNK16NLConnectionHTTP12IsPersistentEv
00025cce t __ZN16NLConnectionHTTP20AddToConnectionCacheEv
00025d5c t __ZN16NLConnectionHTTPD1Ev
00025dbc t __ZN16NLConnectionHTTP16DiscardRemainingEv
00025e04 t __ZN16NLConnectionHTTP4OpenEP13NLAddressInettm
00025f22 t __ZN16NLConnectionHTTP9ReconnectEt
00026128 T _NLCreateConnectionHTTP
0002626a t __ZN8NLCookie14ParseSetCookieEPKcPNS_22ParsedCookiePropertiesE
000264de t __ZN8NLCookie15IsDomainSpoofedEbPKciS1_i
000265f8 t __ZN8NLCookie23GetFullyQualifiedDomainEPK10__CFStringP16OpaqueNLNotifierPS2_
000266e6 t __Z20CStringToCFStringRefPPK10__CFStringPKcm
0002674e t __ZN8NLCookie16GetAsHeaderValueEP8StString
00026822 t __ZN8NLCookie16ComputePathDepthEv
0002687e t __ZN8NLCookie20SetPathPropertyCFStrEPK10__CFString
0002691c t __ZN8NLCookie15SetPathPropertyERKNS_6TextRgE
00026980 t __ZN8NLCookie11SetPropertyEiRKNS_6TextRgE
00026ac4 t __ZN8NLCookie19SetParsedPropertiesERKNS_22ParsedCookiePropertiesE
00026be8 t __ZN8NLCookie17SetStringPropertyER8NLStringPK10__CFString
00026c70 T _NLParseCookie
000271e6 t __ZN8NLCookie10CopyDomainEv
0002723c t __ZN8NLCookie8CopyPathEv
00027292 t __ZN8NLCookie9CopyValueEv
000272e6 t __ZN8NLCookie8CopyNameEv
0002733a t __ZN8NLCookieC1Ev
00027420 t __ZN8NLCookieD1Ev
000274ca t __ZN8NLCookieD0Ev
0002757a t __ZN8NLCookie11MatchesPathEPKcmb
0002779a t __ZN8NLCookie11ComparePathEPKct
00027832 t __ZN8NLCookie13CompareDomainEPKc
00027942 t __ZN8NLCookie10IsInDomainEPKc
00027a04 t __ZN8NLCookie17HasMatchingDomainEPKc
00027ae6 T _NLSetCookie
00027ef0 T _NLDeleteCookie
0002828c T _NLGetCookiesAsHeader
0002864c T _NLDisposeCookieIterator
0002868c t __ZN16NLCookieIteratorD0Ev
00028732 t __ZN16NLCookieIteratorD1Ev
000287d2 t __ZN16NLCookieIteratorC1ER11NLCookieJar
00028896 T _NLCreateCookieIterator
00028922 t __ZN16NLCookieIterator8FindNextER17StCookieJarViewer
00028b8a T _NLGetNextCookie
00028d0c t __ZN11NLCookieJar12CloseServiceEv
00028d40 t __ZN11NLCookieJar12GetGlobalJarEv
00028d50 t __ZN11NLCookieJar5FInitEv
00028d7a t __ZN11NLCookieJar16FirstExactDomainEPKc
00028dd6 t __ZN11NLCookieJar19FirstMatchingDomainEPKc
00028e26 t __ZN11NLCookieJarC1Ev
00028e98 t __ZN11NLCookieJar9CreateJarEPPS_
00028f28 t __ZN11NLCookieJar11OpenServiceEv
00028f4a t __ZN11NLCookieJar13FindNextExactEPlPKcS2_S2_PP8NLCookie
00029054 t __ZN11NLCookieJar10FindCookieER8NLCookie
000290e8 t __ZN11NLCookieJar6RemoveER8NLCookie
00029142 t __ZN11NLCookieJar18RemoveStaleCookiesEl
000291de t __ZN11NLCookieJar20RemoveExpiredCookiesEv
00029278 t __ZN11NLCookieJar32RemoveLRUCookieForDomainIfNeededEPKc
00029320 t __ZN11NLCookieJar3AddER8NLCookie
000294cc t __ZN11NLCookieJar16FindNextMatchingE19NLCookieDomainMatchPlPKcS3_S3_PP8NLCookie
0002964e t __ZN20NLDataDecoderChunked9CacheDataEmPKc
000296cc t __ZN20NLDataDecoderChunked7GetLineEmPKcPmPPcS2_
000297d8 t __ZN20NLDataDecoderChunked16ComputeChunkSizeEmPKc
000298fa t __ZN20NLDataDecoderChunked14DecodeToBufferEP8NLBuffermPKcPm
00029a74 t __ZN17NLDataDecoderGzip10InitializeEv
00029adc t __ZN17NLDataDecoderGzip9TerminateEv
00029afc t __ZN17NLDataDecoderGzip16CopyDataToBufferEP8NLBuffermPKcPm
00029b5e t __ZN17NLDataDecoderGzip11CheckHeaderEv
00029e02 t __ZN17NLDataDecoderGzip15HandleBadHeaderEP8NLBufferPm
00029eec t __ZN17NLDataDecoderGzip14DecodeToBufferEP8NLBuffermPKcPm
0002a142 t __ZN21NLHTTPConnectionCache10ClearCacheEv
0002a1a4 t __ZN21NLHTTPConnectionCache22GetConnection_InternalEP15NLClientContextP13NLAddressInettP7NLProxyP10NLNotifierPP12NLConnection
0002a41e t __ZN21NLHTTPConnectionCache13GetConnectionEP15NLClientContextP13NLAddressInettP7NLProxyP10NLNotifierPP12NLConnection
0002a4a6 t __ZN26NLHTTPConnectionCacheEntryC1EP16NLConnectionHTTP
0002a53a t __ZN21NLHTTPConnectionCache22AddConnection_InternalEP16NLConnectionHTTP
0002a614 t __ZN21NLHTTPConnectionCache13AddConnectionEP16NLConnectionHTTP
0002a682 t __ZN26NLHTTPConnectionCacheEntryD1Ev
0002a6d0 t __ZN26NLHTTPConnectionCacheEntryD0Ev
0002a726 t __ZN21NLHTTPConnectionCacheD0Ev
0002a79e t __ZN21NLHTTPConnectionCacheD1Ev
0002a80e t __ZN21NLHTTPConnectionCacheC1Ev
0002a858 t __ZN21NLHTTPConnectionCache11CreateCacheEPPS_
0002a8b4 t __ZN20NLMessageRequestHTTP15GetMethodStringE12NLHTTPMethodR8StString
0002a8f6 t __ZN11Redirection3SetEPKcRPS_
0002a958 t __ZN20NLMessageRequestHTTPC1ERK11NLClassInfo
0002a9c2 t __ZN20NLMessageRequestHTTP9ResetBodyEv
0002aa74 t __ZN20NLMessageRequestHTTP7SetPathEPKc
0002ab18 t __ZN20NLMessageRequestHTTP17InRedirectionLoopEPKc
0002ab5c t __ZN20NLMessageRequestHTTP21AuthenticateOnRequestER12NLConnection
0002ac7a t __ZN20NLMessageRequestHTTP16SetMethodAndPathE12NLHTTPMethodPKc
0002ad6e t __ZN20NLMessageRequestHTTP26ProcessAuthResponseHeadersER17NLMessageResponselb
0002aeae t __ZN20NLMessageRequestHTTP19ChangeMethodAndPathE12NLHTTPMethodPK10__CFString
0002af78 t __ZN20NLMessageRequestHTTPD1Ev
0002b04c t __ZN20NLMessageRequestHTTPD0Ev
0002b128 t __ZN20NLMessageRequestHTTP20HandleAuthenticationER17NLMessageResponse
0002b39e t __ZN11RedirectionC1Ev
0002b3c2 t __ZN20NLMessageRequestHTTP14HandleRedirectElR17NLMessageResponse
0002b710 t __ZN11RedirectionD1Ev
0002b766 t __ZN11RedirectionD0Ev
0002b7c2 t __ZN20NLMessageRequestHTTP13AppendCookiesER11NLCookieJarPKcbS3_b
0002ba68 t __ZN20NLMessageRequestHTTP27AddContentLengthAndCRLFCRLFEv
0002bb8c t __ZN20NLMessageRequestHTTP13SetConnectionER12NLConnection
0002c1b2 t __ZN20NLMessageRequestHTTP7HasBodyEv
0002c220 t __ZN20NLMessageRequestHTTP11SendHeadersER12NLConnection
0002c2c0 t __ZN20NLMessageRequestHTTP8SendBodyER12NLConnection
0002c450 t __ZN21NLMessageResponseHTTPC1EP12NLConnectionP8NLBufferb
0002c4bc t __ZN21NLMessageResponseHTTP15ProcessBodyDataEPKcm
0002c58e t __ZN21NLMessageResponseHTTP15ReceiveBodyDataEmmPm
0002c6e0 t __ZN21NLMessageResponseHTTP16DiscardRemainingEv
0002c70c t __ZN21NLMessageResponseHTTPD1Ev
0002c79c t __ZN21NLMessageResponseHTTPD0Ev
0002c834 t __ZN20StCookieNotificationC1Ev
0002c870 t __ZN20StCookieNotificationD1Ev
0002c8f0 t __ZN20StCookieNotificationD0Ev
0002c976 t __ZN21NLMessageResponseHTTP11ParseStatusEPKciPlPPK10__CFString
0002cad0 t __ZN21NLMessageResponseHTTP22CheckIfHeadersExpectedEPKcm
0002cb66 t __ZN21NLMessageResponseHTTP15AllocateDecoderEv
0002cd58 t __ZN21NLMessageResponseHTTP23DetermineTransferLengthEv
0002ceda t __ZN21NLMessageResponseHTTP16CheckHTTPVersionEv
0002cfae t __ZN21NLMessageResponseHTTP17ParseReplyHeadersEv
0002cfda t __ZN20StCookieNotification6RejectEP12NLConnectionRKN8NLCookie22ParsedCookiePropertiesEb
0002d0d2 t __ZN21NLMessageResponseHTTP15HandleSetCookieER20NLMessageRequestHTTP
0002d88c t __Z27GetAllowableNumberOfRetriesR20NLMessageRequestHTTPR12NLConnection
0002d8e8 t __Z11HandleErrorlR12NLConnectionR20NLMessageRequestHTTPRhR18NLHTTPRequestState
0002d946 T _NLCreateMessageHTTP
0002db92 T _NLHandleHTTPTransaction
0002e054 t __Z27GetHTTPMethodFromMsgRequestR20NLMessageRequestHTTPP12NLHTTPMethodP8StString
0002e094 t __Z33GetUrlFromConnectionAndMsgRequestR12NLConnectionR20NLMessageRequestHTTPPPK7__CFURLP8StString
0002e1e2 t __Z32GetHostNameFromConnectionOrProxyP12NLConnectionP7NLProxyPPK10__CFString
0002e224 t __Z15GetUrlFromProxyP7NLProxyPPK7__CFURLP8StString
0002e39a t __ZN18NLSecureAllocation5ResetEv
0002e468 t __ZN18NLSecureAllocation19CreateCipherContextEv
0002e53a t __ZN18NLSecureAllocation7SetDataEPKvm
0002e600 t __ZN18NLSecureAllocation4InitEv
0002e632 t __ZN18NLSecureAllocationD0Ev
0002e67e t __ZN18NLSecureAllocationD1Ev
0002e6c2 t __ZN18NLSecureAllocationC1Ev
0002e744 t __Z19NLSecureMemNewAllocPP17OpaqueNLSecureMem
0002e78c t __Z18NLSecureMemSetDataP17OpaqueNLSecureMemPKvm
0002e7e6 t __Z23NLSecureMemReleaseAllocP17OpaqueNLSecureMem
0002e834 t __Z18NLSecureMemGetDataP17OpaqueNLSecureMemPvm
0002e8d2 t __Z22NLSecureMemGetDataSizeP17OpaqueNLSecureMem
0002e908 T _NLGetCSPModuleFromSecKeychainItem
0002e94e T _NLFreeModuleAllocatedMemory
0002e97c t __Z19NLConvertCSSMReturnl
0002e9ae t __Z10CSSMMallocmPv
0002e9b8 t __Z8CSSMFreePvS_
0002e9c2 t __Z11CSSMReallocPvmS_
0002e9cc t __Z10CSSMCallocmmPv
0002e9e0 t __Z14InitCSSMModulePK9cssm_guidmPm
0002eab0 T _NLGetDLModule
0002eafa T _NLGetCLModule
0002eb44 T _NLGetCSPDLModule
0002eb8e T _NLGetCSPModule
0002ebd8 t __Z19TerminateCSSMModulemPK9cssm_guid
0002ec3c T _NLEncodeBase64
0002edbc T _NLDecodeBase64
0002eec4 T _NLDisposeDigest
0002eed8 t __ZN8NLDigest5CleanEv
0002ef4c t __ZN8NLDigest7AddDataEPK10__CFStringm
0002f016 t __ZN8NLDigest13GetDigestDataEv
0002f048 t __ZN8NLDigest17GetDigestDataSizeEv
0002f07a T _NLDisposeHmac
0002f08e t __ZN6NLHmac7AddDataEPKvm
0002f0b6 t __ZN6NLHmac6FinishEv
0002f148 t __ZN6NLHmac10GetMacDataEv
0002f15c t __ZN6NLHmac14GetMacDataSizeEv
0002f170 T _NLFindField
0002f1c0 t __Z15NLTerminateCSSMv
0002f2ac t __Z10NLInitCSSMv
0002f35c t __ZN8NLDigest7AddDataEPKvm
0002f418 t __ZN8NLDigest6FinishEv
0002f4ce T _NLDeleteContext
0002f540 T _NLCreateAsymmetricContext
0002f5c0 T _NLEncryptWithContext
0002f68a T _NLBeginEncryptWithContext
0002f6ee T _NLEncryptMoreWithContext
0002f7a2 T _NLEndEncryptWithContext
0002f82e T _NLDecryptWithContext
0002f906 T _NLBeginDecryptWithContext
0002f96a T _NLDecryptMoreWithContext
0002fa1e T _NLEndDecryptWithContext
0002faaa T _NLWrapKey
0002fb2a T _NLUnwrapKey
0002fbc6 t __ZN6NLHmacD0Ev
0002fc88 T _NLCreateSymmetricKey
0002fd08 T _NLCreatePublicRSAKey
0002fd90 T _NLGetKeyFromCertificate
0002fe3c T _NLGetCertificateFields
0002feee T _NLFreeFields
0002ff8e t __ZN8NLDigestD1Ev
0002fffe t __ZN8NLDigestC1Ev
00030052 t __ZN6NLHmac4InitEmPKhm
00030114 T _NLCreateDigest
0003013a t __ZN8NLDigestD0Ev
000301b2 t __ZN6NLHmacC1Ev
000301e6 T _NLCreateHmac
0003020e t __ZN6NLHmacD1Ev
000302c8 T _NLGetRandomBytes
000303e2 t __ZN8NLDigest4InitEm
000304fa T _NLDigestData
000305ba t __ZN6NLHmac6SetKeyEmPKhm
000306b4 T _NLGenerateSymmetricKeyWithAttr
00030816 T _NLGenerateSymmetricKey
00030846 T _NLDeriveSymmetricKey
000309be T _NLFreeKey
00030a6c T _NLCreateSymmetricContext
00030b48 T _NLDecryptAsymmetric
00030c1c T _NLEncryptAsymmetric
00030d14 T _NLEncryptRSA
00030d60 T _NLVerifySignatureRSA
00030ef0 T _NLVerifyData
00031078 T _NLSignData
00031220 T _NLCreateDigest_
00031284 T _NLDigestAddData
000312a0 T _NLDigestFinish
000312ba T _NLDigestGetDigestData
000312d0 T _NLDigestGetDigestDataSize
000312e6 T _NLDisposeDigest_
00031306 T _NLCreateHmac_
0003137a T _NLHmacAddData
00031396 T _NLHmacFinish
000313b0 T _NLHmacGetMacData
000313c6 T _NLHmacGetMacDataSize
000313dc T _NLDisposeHmac_
000313fe t _FOIDEqual
00031446 t _FFieldEqual
000314e8 t _SecKeychainFindCertificate
00031608 t _SecCertificateCopyIdentity
00031868 t _ASNCreatePrimitiveObject
000318dc t _ASNCreatePrimitiveObjectBuffer
0003195a t _ASNCreateConstructedObject
000319f8 t _ASNGetObjectData
00031a4a t _ASNGetObjectContentData
00031a94 t _ASNGetSubObject
00031acc t _ASNGetSubObjectCount
00031af2 t _ASNChangeObjectTag
00031b20 t _ASNPrimitiveToObject
00031b96 t _ASNCreatePrimitive
00031c24 t _ASNAnyToObject
00031c44 t _ASNSetOrSequenceToObject
00031d10 t _ASNRSAPublicKeyToObject
00031de6 t _ASNCreateRSAPublicKey
00031e24 t _ASNCreateExtendedCertificateOrCertificate
00031e7a t _ASNExtendedCertificateOrCertificateToObject
00031eb8 t __Z33OssCertificateListToObjectWrapperPvPP9ASNObject
00031ec2 t __Z50OssExtendedCertificateOrCertificateToObjectWrapperPvPP9ASNObject
00031ecc t _ASNExtendedCertificatesAndCertificatesToObject
00031f38 t _ASNCreateExtendedCertificatesAndCertificates
00031fc2 t _ASNCertificateListsToObject
00032050 t _ASNIssuerAndSerialNumberToObject
00032116 t _ASNCreateIssuerAndSerialNumber
00032152 t _ASNDigestInfoToObject
00032218 t _ASNCreateDigestInfo
00032254 t _ASNRecipientInfoToObject
0003238e t __Z31OssRecipientInfoToObjectWrapperPvPP9ASNObject
00032398 t _ASNSignerInfoToObject
00032602 t __Z28OssSignerInfoToObjectWrapperPvPP9ASNObject
0003260c t _ASNCreateSignerInfo
00032676 t _ASNSignerInfosToObject
000326dc t _ASNCreateSignerInfos
00032766 t _ASNCreateSignedData
000327e2 t _ASNCreateRecipientInfo
0003282a t _ASNRecipientInfosToObject
00032890 t _ASNCreateRecipientInfos
0003291a t _ASNEncryptedContentInfoToObject
00032a50 t _ASNCreateEncryptedContentInfo
00032a92 t _ASNEnvelopedDataToObject
00032b98 t _ASNCreateEnvelopedData
00032bda t _ASNSignedAndEnvelopedDataToObject
00032e5c t _ASNEncryptedDataToObject
00032f32 t _ASNCreateEncryptedData
00032f6e t _ASNContentInfoToObject
00033090 t _ASNDigestedDataToObject
000331ca t _ASNSignedDataToObject
00033404 t _ASNCreateContentInfoCore
000335bc t _ASNCreateContentInfo
000335e8 t _ASNEncryptedPrivateKeyToObject
000336ae t _ASNCreateEncryptedPrivateKey
000336ec t __Z29OssContentInfoToObjectWrapperPvPP9ASNObject
000336f6 t _ASNPKCS12PbeParamsToObject
000337bc t _ASNCreatePKCS12PbeParams
000337f8 t _ASNCertBagToObject
0003394c t _ASNCreateCertBag
00033982 t _ASNSafeBagToObject
00033b76 t __Z25OssSafeBagToObjectWrapperPvPP9ASNObject
00033b80 t _ASNCreateSafeBag
00033bde t _ASNSafeContentsToObject
00033c26 t _ASNCreateSafeContents
00033cb4 t _ASNAuthenticatedSafeToObject
00033cfc t _ASNCreateAuthenticatedSafe
00033d8a t _ASNMacDataToObject
00033e7a t _ASNCreateMacData
00033ebc t _ASNPFXToObject
00033f98 t _ASNCreatePFX
00033fdc t __Z32OssAttributeValueToObjectWrapperPvPP9ASNObject
00033fe6 t _ASNAttributeTypeAndValueToObject
000340ac t __Z39OssAttributeTypeAndValueToObjectWrapperPvPP9ASNObject
000340b6 t _ASNAttributeToObject
000341a4 t __Z27OssAttributeToObjectWrapperPvPP9ASNObject
000341ae t _ASNCreateAttribute
00034236 t _ASNAttributesToObject
00034344 t _ASNCreateAttributes
000343d8 t _ASNRDNSequenceToObject
00034420 t __Z43OssRelativeDistinguishedNameToObjectWrapperPvPP9ASNObject
00034468 t _ASNAlgorithmIdentifierToObject
0003452e t __Z37OssAlgorithmIdentifierToObjectWrapperPvPP9ASNObject
00034538 t _ASNCreateAlgorithmIdentifier
00034574 t _ASNAlgorithmIdentifiersToObject
000345da t _ASNCreateAlgorithmIdentifiers
00034664 t _ASNCertificateToObject
0003468a t _ASNCreateCertificate
0003470c t _ASNCertificatesToObject
0003477a t _ASNCertificateListToObject
00034798 t __Z29OssCertificateToObjectWrapperPvPP9ASNObject
000347c0 t __Z25OssDecodePrimitiveContentPK8__CFData7CFRangeP19ASNPrimitiveContent
0003480e t _ASNReleaseObject
00034898 t _ASNRetainObject
000348a4 t __Z18OssDecodeASNObjectPK8__CFData7CFRangePP9ASNObject
00034ba4 t _ASNDecodeASNObject
00034bdc t _ASNDecodeASNObjectBuffer
00034c44 t __Z27OssDecodeConstructedContentPK8__CFData7CFRangehP21ASNConstructedContentPm
00034e28 t _ASNClearObjectEncodingCache
00034ea8 t __Z16OutputASN1LengthmP8__CFData
00034f5a t __Z11CbASNObjectP9ASNObject
00035036 t __Z13OutputASN1TagP6ASNTagP8__CFData
0003513e t __Z15OutputASNObjectP9ASNObjectP8__CFData
000352d2 t _ASNEncodeASNObject
00035338 t __Z13FValueFromOIDP10OIDMappingmPK9cssm_dataPm
00035386 t _FDigestAlgorithmFromOID
000353de t _FAsymmetricEncryptionAlgorithmFromOID
00035436 t _FDigitalSignatureAlgorithmFromOID
0003548e t _FSymmetricEncryptionAlgorithmFromOID
000354e2 t _FSignerAttributeFromOID
0003552a t _FContentTypeFromOID
00035572 t _FBagTypeFromOID
000355ba t _FX509ExtensionFromOID
00035602 t _FAuthInfoAccessMethodFromOID
0003564a t _FOtherNameTypeFromOID
00035692 t _FOIDFromDigestAlgorithm
00035704 t _FOIDFromAsymmetricEncryptionAlgorithm
00035776 t _FOIDFromSymmetricEncryptionAlgorithm
000357d0 t _FOIDFromSignerAttribute
0003581c t _FOIDFromContentType
00035868 t _FOIDFromBagType
000358b4 t _ASNObjectToPrimitive
00035af2 t _ASNReleasePrimitive
00035b1e t _ASNObjectToAny
00035b3e t _ASNReleaseAny
00035b50 t _ASNObjectToSetOrSequence
00035ccc t _ASNReleaseSetOrSequence
00035d26 t __Z25ASNReleaseRC2CBCParameterP18ASNRC2CBCParameter
00035d52 t __Z26ASNObjectToRC2CBCParameterP9ASNObjectPP18ASNRC2CBCParameter
00035e5c t _ASNReleaseRSAPublicKey
00035e94 t _ASNReleaseRSAPrivateKey
00035f0e t _ASNObjectToRSAPrivateKey
00036212 t _ASNReleaseExtendedCertificateOrCertificate
00036252 t _ASNObjectToExtendedCertificateOrCertificate
00036304 t __Z30OssParseCertificateListWrapperP9ASNObjectPPv
0003630e t __Z29ReleaseCertificateListWrapperPv
00036318 t __Z47OssParseExtendedCertificateOrCertificateWrapperP9ASNObjectPPv
00036322 t __Z46ReleaseExtendedCertificateOrCertificateWrapperPv
0003632c t _ASNReleaseExtendedCertificatesAndCertificates
00036370 t _ASNObjectToExtendedCertificatesAndCertificates
00036414 t _ASNReleaseIssuerAndSerialNumber
0003644a t _ASNObjectToIssuerAndSerialNumber
00036554 t _ASNReleaseRecipientInfo
00036596 t __Z27ReleaseRecipientInfoWrapperPv
000365a0 t _ASNReleaseDigestInfo
000365d6 t _ASNObjectToDigestInfo
000366c4 t _ASNObjectToRecipientInfo
00036872 t __Z28OssParseRecipientInfoWrapperP9ASNObjectPPv
0003687c t _ASNReleaseSignerInfo
000368e0 t _ASNObjectToSignerInfo
00036c4e t __Z25OssParseSignerInfoWrapperP9ASNObjectPPv
00036c58 t __Z24ReleaseSignerInfoWrapperPv
00036c62 t _ASNReleaseSignerInfos
00036ca6 t _ASNObjectToSignerInfos
00036d50 t _ASNReleaseCertificateLists
00036d94 t _ASNObjectToCertificateLists
00036e3c t _ASNReleaseRecipientInfos
00036e80 t _ASNObjectToRecipientInfos
00036f30 t _ASNReleaseEncryptedContentInfo
00036f68 t _ASNObjectToEncryptedContentInfo
00037116 t _ASNReleaseEnvelopedData
0003714e t _ASNObjectToEnvelopedData
000372c2 t _ASNReleaseSignedAndEnvelopedData
00037338 t _ASNObjectToSignedAndEnvelopedData
000376ce t _ASNReleaseEncryptedData
000376fa t _ASNObjectToEncryptedData
00037806 t _ASNReleaseContentInfo
000378bc t _ASNReleaseDigestedData
000378fe t _ASNReleaseSignedData
00037968 t _ASNObjectToDigestedData
00037b1e t _ASNObjectToContentInfoCore
00037dc8 t _ASNObjectToContentInfo
00037dea t _ASNObjectToSignedData
0003813c t _ASNReleasePrivateKeyInfo
0003817e t _ASNObjectToPrivateKeyInfo
00038318 t _ASNReleaseEncryptedPrivateKey
0003834e t _ASNObjectToEncryptedPrivateKey
00038420 t _ASNReleaseSubjectPublicKeyInfo
00038456 t _ASNObjectToSubjectPublicKeyInfo
00038560 t __Z26OssParseContentInfoWrapperP9ASNObjectPPv
0003856a t __Z25ReleaseContentInfoWrapperPv
00038574 t _ASNReleasePKCS12PbeParams
000385a0 t _ASNObjectToPKCS12PbeParams
00038672 t _ASNReleaseCertBag
0003869e t _ASNObjectToCertBag
00038814 t _ASNReleaseSafeBag
00038876 t _ASNObjectToSafeBag
00038aa6 t __Z22OssParseSafeBagWrapperP9ASNObjectPPv
00038ab0 t __Z21ReleaseSafeBagWrapperPv
00038aba t _ASNReleaseSafeContents
00038afe t _ASNObjectToSafeContents
00038b9c t _ASNReleaseAuthenticatedSafe
00038be0 t _ASNObjectToAuthenticatedSafe
00038c7e t _ASNReleaseMacData
00038cb4 t _ASNObjectToMacData
00038dfa t _ASNReleasePFX
00038e32 t _ASNObjectToPFX
00038f5c t _ASNReleaseRelativeDistinguishedName
00038fa0 t _ASNObjectToRelativeDistinguishedName
0003904a t __Z40OssParseRelativeDistinguishedNameWrapperP9ASNObjectPPv
00039054 t __Z39ReleaseRelativeDistinguishedNameWrapperPv
0003905e t _ASNReleaseAttribute
000390a4 t _ASNObjectToAttribute
000391ec t __Z24OssParseAttributeWrapperP9ASNObjectPPv
000391f6 t __Z23ReleaseAttributeWrapperPv
00039200 t _ASNReleaseAttributes
00039254 t _ASNObjectToAttributes
00039312 t _ASNReleaseAttributeTypeAndValue
00039348 t _ASNObjectToAttributeTypeAndValue
00039452 t __Z36OssParseAttributeTypeAndValueWrapperP9ASNObjectPPv
0003945c t __Z35ReleaseAttributeTypeAndValueWrapperPv
00039466 t _ASNReleaseRDNSequence
000394ba t _ASNObjectToRDNSequence
00039568 t __Z18OssParseOIDWrapperP9ASNObjectPPv
00039592 t __Z17ReleaseOIDWrapperPv
0003959c t _ASNReleasePolicyInformation
000395c8 t _ASNObjectToPolicyInformation
00039674 t __Z32OssParsePolicyInformationWrapperP9ASNObjectPPv
0003967e t __Z31ReleasePolicyInformationWrapperPv
00039688 t _ASNReleaseAlgorithmIdentifier
000396be t _ASNObjectToAlgorithmIdentifier
000397e4 t __Z34OssParseAlgorithmIdentifierWrapperP9ASNObjectPPv
000397ee t __Z33ReleaseAlgorithmIdentifierWrapperPv
000397f8 t _ASNReleaseAlgorithmIdentifiers
0003983c t _ASNObjectToAlgorithmIdentifiers
000398e8 t _ASNReleaseOtherName
0003991e t _ASNObjectToOtherName
00039a94 t _ASNReleaseGeneralName
00039b28 t _ASNReleaseAccessDescription
00039b5e t __Z31ReleaseAccessDescriptionWrapperPv
00039b68 t _ASNObjectToGeneralName
00039dce t _ASNObjectToAccessDescription
00039ed8 t __Z32OssParseAccessDescriptionWrapperP9ASNObjectPPv
00039ee2 t __Z26OssParseGeneralNameWrapperP9ASNObjectPPv
00039eec t __Z25ReleaseGeneralNameWrapperPv
00039ef6 t _ASNReleaseGeneralNames
00039f3a t _ASNObjectToGeneralNames
00039fde t _ASNReleaseAuthorityInfoAccessSyntax
0003a022 t _ASNObjectToAuthorityInfoAccessSyntax
0003a0c0 t _ASNReleaseSubjectKeyID
0003a0ec t _ASNObjectToSubjectKeyID
0003a15a t _ASNReleaseAuthorityKeyID
0003a186 t _ASNObjectToAuthorityKeyID
0003a2e2 t _ASNReleaseCertificatePolicies
0003a326 t _ASNObjectToCertificatePolicies
0003a3b2 t _ASNReleaseExtendedKeyUsage
0003a3f6 t _ASNObjectToExtendedKeyUsage
0003a496 t _ASNReleaseCRLDistributionPoint
0003a4f0 t _ASNObjectToCRLDistributionPoint
0003a7d6 t __Z35OssParseCRLDistributionPointWrapperP9ASNObjectPPv
0003a7e0 t __Z34ReleaseCRLDistributionPointWrapperPv
0003a7ea t _ASNReleaseCRLDistributionPoints
0003a82e t _ASNObjectToCRLDistributionPoints
0003a8cc t _ASNReleaseX509Extensions
0003a910 t _ASNReleaseRevokedCertificate
0003a946 t __Z32ReleaseRevokedCertificateWrapperPv
0003a950 t _ASNObjectToX509Extensions
0003a9ee t _ASNObjectToRevokedCertificate
0003ab2c t __Z33OssParseRevokedCertificateWrapperP9ASNObjectPPv
0003ab36 t _ASNReleaseCertificates
0003ab7a t _ASNObjectToCertificates
0003ac1e t _ASNReleaseRevokedCertificates
0003ac62 t _ASNObjectToRevokedCertificates
0003ad00 t _ASNReleaseTBSCertList
0003ad76 t _ASNObjectToTBSCertList
0003b0ba t _ASNReleaseCertificateList
0003b106 t _ASNObjectToCertificateList
0003b238 t _ASNNormalizeRDNSequence
0003b472 t _ASNObjectToPolicyConstraints
0003b580 t _ASNObjectToBasicConstraints
0003b6ba t _ASNObjectToInhibitAnyPolicy
0003b718 t _ASNObjectToValidity
0003b7e8 t _ASNReleaseTBSCertificate
0003b87c t _ASNReleaseCertificate
0003b8c8 t __Z25ReleaseCertificateWrapperPv
0003b8d2 t _ASNObjectToTBSCertificate
0003bc88 t _ASNObjectToCertificate
0003bdba t __Z26OssParseCertificateWrapperP9ASNObjectPPv
0003bdc4 t _ASNObjectToKeyUsage
0003beaa t _ASNReleaseX509Extension
0003bf9c t _ASNObjectToX509Extension
0003c340 t __Z28OssParseX509ExtensionWrapperP9ASNObjectPPv
0003c34a t __Z27ReleaseX509ExtensionWrapperPv
0003c354 t __Z23ReleaseNLDigestCallBackPK13__CFAllocatorPKv
0003c36c t __Z25OssCreateDigestDictionaryP23ASNAlgorithmIdentifiersPK8__CFDataPPK14__CFDictionary
0003c4e2 t __Z17FCertificateMatchP24ASNIssuerAndSerialNumberP19OpaqueDICertificate
0003c68c t __Z16FFindCertificateP24ASNIssuerAndSerialNumberPK9__CFArrayPP19OpaqueDICertificate
0003c87e T _ASNRetainSignatureSummary
0003c896 t __Z33OssBuildSimpleAlgorithmIdentifierP9cssm_dataPP22ASNAlgorithmIdentifier
0003c95c t __Z39OssBuildSimpleDigestAlgorithmIdentifiermPP22ASNAlgorithmIdentifier
0003c996 t __Z53OssBuildSimpleAsymmetricEncryptionAlgorithmIdentifiermPP22ASNAlgorithmIdentifier
0003c9d0 t __Z23OssBuildSignerAttribute16SIGNER_ATTRIBUTEP9ASNObjectPP12ASNAttribute
0003ca6e t __Z21OssBuildMessageDigestPKhmmPP19ASNPrimitiveContent
0003cb16 t __Z30OssBuildMessageDigestAttributePKhmmPP12ASNAttribute
0003cbd8 t __Z28OssBuildContentTypeAttributemPP12ASNAttribute
0003ccb0 t __Z28OssBuildSigningTimeAttributedPP12ASNAttribute
0003cd24 t __Z31OssBuildAuthenticatedAttributesPKhmmmdPP13ASNAttributes
0003ce08 t __Z24OssBuildCertificateChainPK9__CFArrayPP38ASNExtendedCertificatesAndCertificates
0003cf6c t __Z44OssBuildIssuerAndSerialNumberFromCertificateP23OpaqueSecCertificateRefPP24ASNIssuerAndSerialNumber
0003d0e0 t __Z18OssBuildSignerInfoP23OpaqueSecCertificateRefPKhmmdPP13ASNSignerInfo
0003d4fe t __Z21OssBuildRecipientInfoP23OpaqueSecCertificateRefPK8cssm_keyPP16ASNRecipientInfo
0003d73e t __Z28OssBuildEncryptedContentInfomPKhmP8cssm_keyPP23ASNEncryptedContentInfo
0003d9f4 t __Z32OssGetContentEncryptionAlgorithmP23ASNEncryptedContentInfoPm
0003da92 t __Z33OssGetContentEncryptionInitVectorP23ASNEncryptedContentInfoPPKhPm
0003db32 t __Z23OssExtractEncryptionKeyP16ASNRecipientInfomPmP8cssm_keyPP23OpaqueSecCertificateRef
0003de5a t __Z26OssExtractEncryptedContentP23ASNEncryptedContentInfomPK8cssm_keyPmPPK8__CFData
0003dfc6 T _ASNReleaseSignatureSummary
0003e014 t __Z33OssCopyCertificatesFromSignedDataP13ASNSignedDataPPK9__CFArray
0003e134 T _ASNSignData
0003e3f2 T _ASNRetainEncryptionSummary
0003e40a T _ASNEnvelopeData
0003e6be T _ASNExtractContentInfoData
0003e79e T _ASNCreateContentInfoData
0003e83a T _ASNReleaseEncryptionSummary
0003e87a t __Z18OssCreateSignatureP13ASNSignerInfomPK14__CFDictionaryPK9__CFArrayPP19ASNSignatureSummary
0003eeee T _ASNExtractSignedData
0003f0fa T _ASNExtractEnvelopedData
0003f348 t __Z21ReplicateToFillBufferPKhmPhm
0003f398 t __Z23DerivePKCS12KeyMaterialmPK10__CFStringPK8__CFDatammmPS4_
0003fa9a t __Z16ComputePKCS12MacmPK10__CFStringPPK8__CFDatamPKhmP6NLHmac
0003fba0 t __Z24EncryptDecryptPKCS12DatahP22ASNAlgorithmIdentifierPK10__CFStringPK8__CFDataPS6_
00040068 t __Z27CopyObjectsFromSafeContentsP15ASNSafeContentsPK10__CFStringP9__CFArrayS5_
000403d8 t __Z24BuildAlgorithmIdentifierPK9cssm_dataPP22ASNAlgorithmIdentifier
0004051c t __Z24BuildLocalKeyIDAttributehPP13ASNAttributes
0004064e t __Z20BuildSafeBagWithCertP19OpaqueDICertificatePhPP10ASNSafeBag
0004077c t __Z32PKCS12CopyAllCertificatesAndKeysP6ASNPFXPK10__CFStringPPK9__CFArrayS7_
00040d28 t __Z34PKCS12CreateWithCertificatesAndKeyPK9__CFArrayP15OpaqueSecKeyRefPK10__CFStringhPP6ASNPFX
000419dc t __Z20GetDataFromPrimitiveP19ASNPrimitiveContentPPKhPm
00041a06 t __Z21ASNDuplicatePrimitiveP19ASNPrimitiveContentPS0_
00041a52 t __Z23ASNObjectToIntegerValueP9ASNObjectPl
00041ac0 t __Z23ASNIntegerValueToObjectlPP9ASNObject
00041b2c t __Z9FTagMatchP9ASNObject11ASNTagClassm
00041b4e t __Z23ASNAbsoluteTimeToObjectdPP9ASNObject
00041d8a t __Z23ASNObjectToAbsoluteTimeP9ASNObjectPd
00041f60 t __Z17ASNObjectToStringP9ASNObjectmPPK10__CFString
0004206a t __ZN13DICertificate15CopyDisplayNameEP14ASNRDNSequence
000421ac t __ZN13DICertificate14FEnsureSecCertEv
0004221a t __ZN13DICertificate15CopyCertificateEv
00042244 t __ZN13DICertificate23CopyKeychainDescriptionEv
0004236c t __ZN13DICertificate14FEnsureASNCertEv
000423ce t __ZN13DICertificate21FTimeIsWithinValidityEdPh
00042432 t __ZN13DICertificate22FGetSignatureAlgorithmEPm
000424a0 t __ZN13DICertificate22CopyCriticalExtensionsEv
00042520 t __ZN13DICertificate13FGetExtensionEmPP16ASNX509Extension
0004257c t __ZN13DICertificate25FEnsureDistributionPointsEv
000425ce t __ZN13DICertificate28CopyHttpCrlDistributionPointEm
000426a6 t __ZN13DICertificate28GetCRLDistributionPointCountEv
000426cc t __ZN13DICertificate24FExtendedKeyUsageAllowedEm
000428d0 t __ZN13DICertificate34CopyAuthorityInformationAccessURIsEv
000429e0 t __ZN13DICertificate26FIdenticalSubjectAndIssuerEv
00042a78 t __ZN13DICertificate21CopyIssuerDisplayNameEv
00042aac t __ZN13DICertificate17GetASNCertificateEv
00042ac8 t __ZN13DICertificate24FEnsureNormalizedSubjectEv
00042b6e t __ZN13DICertificate25FMatchesNormalizedSubjectEPK8__CFData
00042bfa t __ZN13DICertificate21CopyNormalizedSubjectEv
00042c24 t __ZN13DICertificate23FEnsureNormalizedIssuerEv
00042cca t __ZN13DICertificate20CopyNormalizedIssuerEv
00042cf4 t __ZN13DICertificate28GetMostSpecificRDNFieldValueEP14ASNRDNSequencePK9cssm_data
00042da0 t __ZN13DICertificate19GetIssuerFieldValueEPK9cssm_data
00042ddc t __ZN13DICertificate20CopyIssuerCommonNameEv
00042e2a t __ZN13DICertificate20GetSubjectFieldValueEPK9cssm_data
00042e66 t __ZN13DICertificate21CopySubjectCommonNameEv
00042eb4 T _DICertificateRelease
00042ed4 T _DICertificateCopyCertificate
00042f06 T _DICertificateCopySubjectCommonName
00042f38 T _DICertificateCopyIssuerCommonName
00042f6a T _DICertificateCopyKeychainDescription
00042f9c T _DICertificateCopyIssuerDisplayName
00042fce T _DICertificateCopyAuthorityInformationAccessURIs
00043000 T _DICertificateGetSignatureAlgorithm
0004302e T _DICertificateIsIdenticalSubjectAndIssuer
0004305a T _DICertificateExtendedKeyUsageAllowed
0004308e t __ZN13DICertificate16CopyEmailAddressEPh
000432a8 T _DICertificateCopyEmailAddress
000432e2 t __ZN13DICertificate22CopySubjectDisplayNameEv
0004337c T _DICertificateCopySubjectDisplayName
000433ae t __ZN13DICertificate16FEnsurePublicKeyEv
00043418 t __ZN13DICertificate13FGetPublicKeyEPP8cssm_key
00043446 t __ZN13DICertificate18FCopyFieldWithCSSMEPK9cssm_dataPPK8__CFData
0004351c T _DICertificateRetain
00043548 t __ZN13DICertificateD0Ev
00043644 t __ZN13DICertificateD1Ev
00043738 t __ZN13DICertificateC1Ev
000437c4 t __ZN13DICertificate17CreateWithSecCertEP23OpaqueSecCertificateRef
00043872 T _DICertificateCreateWithSecCert
000438a4 t __ZN13DICertificate22CreateWithPersistentIDEPK8__CFDataPKv
00043938 T _DICertificateCreateWithPersistentID
0004396c t __ZN13DICertificate14CreateWithDataEPK8__CFData
000439c2 T _DICertificateCreateWithData
000439f4 t __ZN13DICertificate16CreateWithBufferEPKhm
00043a3c T _DICertificateCreateWithBuffer
00043a76 t __ZN13DICertificate16CopyPersistentIDEv
00043b78 T _DICertificateCopyPersistentID
00043baa T _DICertificateGetExpiration
00043bf6 t __Z27DICertificateRetainCallBackPK13__CFAllocatorPKv
00043c20 t __Z28DICertificateReleaseCallBackPK13__CFAllocatorPKv
00043c36 T _DICertificateCopyCertData
00043c78 t __ZN13DICertificate24FDigitalSignatureIsValidEPS_
00043d62 T _DICertificateGetPublicKey
00043d9a T _DICertificateGetUsage
00043df2 T _DICertificateGetPublicKeyUsage
00043e3e T _DICertificateIsIndividual
00043e98 t __ZN13DICertificate31CopyBrokenAppleNormalizedIssuerEv
00043eec t __ZN13DICertificate32CopyBrokenAppleNormalizedSubjectEv
00043f40 t __ZN13DICertificate16CopyFromKeychainEPP23OpaqueSecCertificateRef
000440ba T _DICertificateCopyFromKeychain
000440d8 T _DICertificateTimeIsWithinValidity
0004415c T _DICopyKeychainForCertType
00044394 T _DIAddCertificates
0004449a T _DICopyCertsForCertType
000445ea T _DICopyCertsWithEmailAddress
0004478c T _DICreateCertificateFromDER
000447ce T _DIDecodePEMObjects
00044ace T _DICopyCertificatesAndKeysFromPKCS12
00045206 T _DICreateCertificatesFromPEMData
0004533c T _DICopyCertificatesFromPKCS7
000454e8 T _DICreatePEMDataForCertificate
0004571a T _DICreatePKCS7DataWithCertificates
00045a48 T _DICreatePKCS12DataWithCertificatesAndKey
00045b28 t __ZN15DIAnchorManagerD1Ev
00045b74 t __ZN15DIAnchorManagerD0Ev
00045bc8 t __ZN15DIAnchorManagerC1Ev
00045c00 t __ZN15DIAnchorManager22CopyAnchorsWithSubjectEPK8__CFDataPPK9__CFArray
00045d52 t __ZN15DIAnchorManager4InitEv
00045ee0 t __ZN15DIAnchorManager9CreateNewEv
00045f36 t __ZN5DICRL13FEnsureASNCRLEv
00045f94 t __ZN5DICRL16FEnsureSignatureEv
00046002 t __ZN5DICRL13CopySignatureEv
0004602c t __ZN5DICRL20FCertificateIsListedEP13DICertificatePm
00046120 t __ZN5DICRL22FGetSignatureAlgorithmEPm
0004618e t __ZN5DICRL24FDigitalSignatureIsValidEP13DICertificate
0004627a t __ZN5DICRL13FGetExtensionEmPP16ASNX509Extension
000462d6 t __ZN5DICRL23FEnsureNormalizedIssuerEv
0004637c t __ZN5DICRL20CopyNormalizedIssuerEv
000463a6 t __ZN17DICRLCacheManager37GetAttributeValueForDistributionPointEPK10__CFString
0004643c t __ZN17DICRLCacheManager10CloseCacheEv
0004647c t __ZN17DICRLCacheManager14GetStorageFileEP5FSRef
0004659c t __ZN17DICRLCacheManager21InitializeNewDatabaseEv
00046702 t __ZN17DICRLCacheManager16CreateCRLStorageEP5FSRef
0004688e t __ZN17DICRLCacheManager25FDatabaseAtCurrentVersionEv
0004696c t __ZN17DICRLCacheManager14OpenCRLStorageEP5FSRef
00046a40 t __ZN17DICRLCacheManager9OpenCacheEv
00046aa4 t __ZN17DICRLCacheManager18RemoveCRLFromCacheEP5DICRL
00046c42 t __ZN20DICertRevocationInfo15SetUpdatePolicyEm
00046c50 t __ZN20DICertRevocationInfo20SetCertTrustCallbackEPFvPvmS0_EhS0_
00046c7c t __ZN20DICertRevocationInfo17SetEvaluationTimeEd
00046c8e t __ZN20DICertRevocationInfo11DownloadCRLEPK7__CFURLPP14OpaqueNLBuffer
00046edc t __ZN20DICertRevocationInfo12FCFDataEqualEPK8__CFDataS2_
00046f4e t __ZN20DICertRevocationInfo20FKeyIdentifiersMatchEP5DICRLP13DICertificate
00047012 t __ZN20DICertRevocationInfo21FCertificateIsRevokedEPm
0004710a t __ZN20DICertRevocationInfo24ReleaseGlobalAllocationsEv
00047110 t __ZN20DICertRevocationInfoD0Ev
00047190 t __ZN20DICertRevocationInfoD1Ev
00047208 t __ZN17DICRLCacheManagerD0Ev
00047254 t __ZN17DICRLCacheManagerD1Ev
00047298 t __ZN5DICRLD0Ev
00047336 t __ZN5DICRLD1Ev
000473cc t __ZN20DICertRevocationInfo18SetCRLCacheManagerEP17DICRLCacheManager
0004740a t __ZN20DICertRevocationInfo14SetValidSignerEP13DICertificate
00047448 t __ZN20DICertRevocationInfo20SetCertTrustTemplateEP11DICertTrust
00047486 t __ZN20DICertRevocationInfoC1EP13DICertificate
00047528 t __ZN20DICertRevocationInfo9CreateNewEP13DICertificate
00047572 t __ZN17DICRLCacheManagerC1Ev
000475b2 t __ZN17DICRLCacheManager9CreateNewEv
00047608 t __ZN5DICRLC1Ev
0004766a t __ZN5DICRL14CreateWithDataEPK8__CFData
000476b8 t __ZN5DICRL16CreateWithBufferEPKhm
00047700 t __ZN17DICRLCacheManager23ExecuteSimpleCacheQueryEmPK8__CFDataPPK9__CFArray
00047906 t __ZN17DICRLCacheManager29FindCRLsWithDistributionPointEPK10__CFStringPPK9__CFArray
0004795c t __ZN5DICRL24CreateWithPEMOrDERBufferEPKhm
000479e6 t __ZN17DICRLCacheManager21CacheCRLWithAttributeEP5DICRLPK8__CFDataPK10__CFString
00047c4c t __ZN20DICertRevocationInfo12FCRLIsUsableEP5DICRL
00047cb2 t __ZN20DICertRevocationInfo14FCRLIsUpToDateEP5DICRL
00047d08 t __ZN20DICertRevocationInfo14FCRLIsCompleteEP5DICRL
00047d8a t __ZN20DICertRevocationInfo13FCRLIsTrustedEP5DICRL
00047e84 t __ZN20DICertRevocationInfo30LoadRevocationInfoForDistPointEPK10__CFStringPh
00048172 t __ZN20DICertRevocationInfo21LoadAllRevocationInfoEv
000481f0 t __ZN20DICertRevocationInfo30GetCertificateRevocationStatusEPmS0_
000482f4 t __ZN11DICertTrust13SetEntityCertEP23OpaqueSecCertificateRef
00048328 t __ZN11DICertTrust20SetCertTrustCallbackEPFvPvmS0_EhS0_
00048356 t __ZN11DICertTrust23AddIntermediateKeychainEP20OpaqueSecKeychainRef
000483b2 t __ZN11DICertTrust24AddIntermediateKeychainsEPKv
0004842c t __ZN14PolicyTreeNode17AddExpectedPolicyEPK8__CFData
00048488 t __ZN11DICertTrust12FCFDataEqualEPK8__CFDataS2_
000484f8 t __ZN11DICertTrust27ConfirmSubjectKeyIdentifierEP13DICertificatePK8__CFData
00048596 t __ZN11DICertTrust25DownloadParentCertificateEP19OpaqueDICertificatePS1_
0004895c T _DICertTrustRelease
0004897c T _DICertTrustSetEntityCert
000489a4 T _DICertTrustAddIntermediateKeychains
000489bc T _DICertTrustGetEntityCert
000489e0 t __ZN11DICertTrust23FEvalCheckNodeSignatureEP12CertTreeNode
00048a90 t __ZN11DICertTrust23FEvalPrepareForNextNodeEP12CertTreeNode
00048c12 t __ZN11DICertTrust21FEvalFinishEvaluationEP12CertTreeNode
00048c9e t __ZN11DICertTrust33FEvalCriticalExtensionsAreHandledEP12CertTreeNode
00048d8e t __ZN11DICertTrust31FCopyNodeAuthorityKeyIdentifierEP12CertTreeNodePPK8__CFData
00048e20 t __ZN11DICertTrust20CopyCertificateChainEPPK9__CFArray
00048ec0 T _DICertTrustCopyCertificateChain
00048ed8 t __ZN11DICertTrust27FEvalCheckNodeBasicValidityEP12CertTreeNode
000490c0 t __ZN11DICertTrust14CopyNodeIssuerEP12CertTreeNode
000490dc t __ZN11DICertTrust25CopyNodeBrokenAppleIssuerEP12CertTreeNode
000490f8 t __ZN11DICertTrust16GetFailureReasonEPm
000491b0 T _DICertTrustGetFailureReason
000491e4 t __ZN11DICertTrust18FEvalNodeIsRevokedEP12CertTreeNode
000492c2 t __ZN11DICertTrust35CopyAllIntermediatesWithSubjectNameEPK8__CFDataS2_PP9__CFArray
0004945e t __ZN11DICertTrust19AddIntermediateCertEP23OpaqueSecCertificateRef
000494d6 t __ZN11DICertTrust20AddIntermediateCertsEPKv
00049550 T _DICertTrustAddIntermediateCerts
00049568 T _DICertTrustRetain
00049594 t __ZN14PolicyTreeNodeD0Ev
00049606 t __ZN14PolicyTreeNodeD1Ev
00049672 t __ZN12CertTreeNodeD0Ev
000496d6 t __ZN12CertTreeNodeD1Ev
00049732 t __ZN11DICertTrustD0Ev
000497ee t __ZN11DICertTrustD1Ev
000498a2 t __ZN11DICertTrust16SetAnchorManagerEP15DIAnchorManager
000498e0 t __ZN11DICertTrust18SetCRLCacheManagerEP17DICRLCacheManager
0004991e t __ZN12CertTreeNode9SetSigneeEPS_
0004995c t __ZN14PolicyTreeNodeC1Ev
000499a6 t __ZN14PolicyTreeNode9CreateNewEv
000499e4 t __ZN12CertTreeNodeC1Ev
00049a38 t __ZN12CertTreeNode9CreateNewEmPv
00049aac t __ZN11DICertTrust20CreateSigningObjectsEP12CertTreeNodePPK9__CFArray
00049cda t __ZN11DICertTrust20BuildCertificateTreeEPP9__CFArray
00049f0c t __ZN11DICertTrustC1Ev
00049fa0 t __ZN11DICertTrust9CreateNewEm
0004a0d4 T _DICertTrustCreateNew
0004a104 T _DICertTrustSetCertTrustCallback
0004a140 t __ZN11DICertTrust20FEvalInitializeStateEP12CertTreeNode
0004a228 t __ZN11DICertTrust21FEvalUpdatePolicyTreeEP12CertTreeNode
0004a798 t __ZN11DICertTrust16FEvalProcessNodeEP12CertTreeNode
0004a860 t __ZN11DICertTrust24EvaluateCertificateChainEP12CertTreeNodePm
0004a918 t __ZN11DICertTrust23EvaluateCertificateTreeEP9__CFArrayPm
0004acd2 t __ZN11DICertTrust13EvaluateTrustEPm
0004ad64 T _DICertTrustEvaluateTrust
0004ad7c T _NLCreateLexer
0004ae02 T _NLMatchRegularExpression
0004aef2 T _NLDisposeLexer
0004af0c t __ZN14AuthCtx_SPNEGOC1Ev
0004af70 t __ZN14AuthCtx_SPNEGO9ClearDataEv
0004afca t __ZN14AuthCtx_SPNEGO13GetAuthSchemeEv
0004afd4 t __ZN14AuthCtx_SPNEGO24IsSessionBasedAuthSchemeEv
0004afdc t __ZN14AuthCtx_SPNEGO13AuthOnRequestER12NLConnectionR20NLMessageRequestHTTP
0004b0ae t __ZN14AuthCtx_SPNEGO23ReadNegotiateAuthHeaderER17NLMessageResponseR8StString
0004b176 t __ZN14AuthCtx_SPNEGO16CreateTargetNameERK12NLConnection
0004b1d8 t __ZN14AuthCtx_SPNEGO22HandleAcceptIncompleteEPhm
0004b2d4 t __ZN14AuthCtx_SPNEGO17HandleTargetTokenEPKhm
0004b3d0 t __ZN14AuthCtx_SPNEGO17HandleAuthFailureEv
0004b3e8 t __ZN14AuthCtx_SPNEGO27FCollectProxyRefCredentialsER12NLConnection
0004b4fe t __ZN14AuthCtx_SPNEGOD1Ev
0004b54e t __ZN14AuthCtx_SPNEGOD0Ev
0004b5a6 t __ZN14AuthCtx_SPNEGO14AuthOnResponseER12NLConnectionR20NLMessageRequestHTTPR17NLMessageResponsel
0004b776 t __ZN14AuthCtx_SPNEGO5FInitEPK12NLConnectionP18NLCredentialsBlockb
0004b8b0 t __ZN14AuthCtx_SPNEGO19FCollectCredentialsER12NLConnectionR20NLMessageRequestHTTPR17NLMessageResponse
0004baa4 t __Z24CreateMechTokenASNObjectP22gss_buffer_desc_structPP9ASNObject
0004bb46 t __Z33CreateNegTokenInitOrRespASNObjectbPP9ASNObjectmS1_
0004bbe2 t __Z20SPNEGO_ReleaseBufferPh
0004bbf4 t __Z32GetUniversalTagDataFromASNObjectP9ASNObjectmPPhRm
0004bcbe t __Z30SPNEGO_ParseNegotiateTokenRespPKhmR16SPNEGO_NegResultPPhRmS4_S5_S4_S5_
0004bfaa t __Z15EncodeASNObjectbP9ASNObject
0004c0ce t __Z31SPNEGO_CreateNegotiateTokenResp16SPNEGO_NegResultP22gss_buffer_desc_structS1_
0004c300 t __Z31SPNEGO_CreateNegotiateTokenInitP23gss_OID_set_desc_structP22gss_buffer_desc_struct
0004c5d0 t __Z18GSSAPI_CompareNamePvS_Rb
0004c61a t __Z20GSSAPI_IndicateMechsPP23gss_OID_set_desc_struct
0004c654 t __Z18GSSAPI_AcquireCredPvPS_
0004c6b8 t __Z18GSSAPI_InquireCredPvRS_Rh
0004c724 t __Z21GSSAPI_InitSecContextPvS_P19gss_OID_desc_structP22gss_buffer_desc_structPS_PS1_S3_Pb
0004c7be t __Z11GSSAPI_WrapPvP22gss_buffer_desc_structS1_
0004c826 t __Z13GSSAPI_UnwrapPvP22gss_buffer_desc_structS1_
0004c886 t __Z20GSSAPI_ReleaseBufferP22gss_buffer_desc_struct
0004c8a4 t __Z21GSSAPI_ReleaseContextPPv
0004c8dc t __Z18GSSAPI_ReleaseCredPPv
0004c90c t __Z18GSSAPI_ReleaseNamePPv
0004c93c t __Z20GSSAPI_ReleaseOIDSetPP23gss_OID_set_desc_struct
0004c96c t __Z42GSSAPI_CreateTargetNameFromProtoAndAddressPK10__CFStringR13NLAddressInetPPv
0004cab2 t __Z26GSSAPI_CreatePrincipalNamePK10__CFStringPPv
0004cb98 t __Z14CFTypeToBufferPKvbPPhRl
0004cd06 t __Z25KerberosLoginIdleCallbackj
0004cd2e T _NLGSSAPIDisposeAuthenticationContext
0004cd48 T _NLGSSAPIReleaseCredentials
0004cd70 T _NLGSSAPICopyAvailablePrincipalNames
0004cf18 T _NLGSSAPIAreCredentialsValid
0004cf4a T _NLGSSAPISetIdleCallback
0004cfd6 T _NLGSSAPIAcquireNewTicketGrantingTicket
0004d0cc T _NLGSSAPIRetainCredentials
0004d0fa T _NLGSSAPIPrincipalCopyDisplayName
0004d248 T _NLGSSAPIPrincipalCopyNameAndRealm
0004d414 t __Z20GSSAPIBufferToCFTypeRK22gss_buffer_desc_structb
0004d4e2 t __Z15GSSWrapOrUnwrapbP21OpaqueNLGSSAPIContextPK8__CFDataPS3_
0004d5d4 T _NLGSSAPIUnwrapData
0004d5ec T _NLGSSAPIWrapData
0004d606 T _NLGSSAPICreateAuthenticationMessage
0004d766 T _NLGSSAPIAcquireCredentials
0004d846 t __ZN15NLGSSAPIContextC1Ev
0004d878 T _NLGSSAPICreateAuthenticationContext
0004d946 t __ZN15NLGSSAPIContextD1Ev
0004d9a6 t __ZN15NLGSSAPIContextD0Ev
0004da10 T _NLAddressGetAddressCount
0004da68 T _NLAddressGetAddressAtIndex
0004dba8 T _NLDirectReceive
0004dc5c T _NLConnectionWaitForAction
0004dd6a T _NLConnectionCountDataAvailable
0004ddfc t __ZN12UAddressUtil21NumericToPresentationEhPKvPPK10__CFString
0004de84 t __ZN12UAddressUtil21PresentationToNumericEhPK10__CFStringPv
0004df40 t __ZN21NLUserPassCredentialsC1Ev
0004dfd0 t __ZN21NLUserPassCredentialsD0Ev
0004e058 t __ZN21NLUserPassCredentials25CastToUserPassCredentialsEv
0004e060 t __ZN21NLUserPassCredentialsD1Ev
0004e0e0 t __ZN19NLGSSAPICredentials17CopyPrincipalNameEv
0004e13e t __ZN19NLGSSAPICredentials23CastToGSSAPICredentialsEv
0004e146 t __ZN19NLGSSAPICredentials5ClearEv
0004e182 t __ZN19NLGSSAPICredentials17HandleAuthFailureEv
0004e1ca t __ZN19NLGSSAPICredentials16SetPrincipalInfoEPK10__CFStringP11NLGSSCredID
0004e256 t __ZN19NLGSSAPICredentialsD0Ev
0004e2bc t __ZN19NLGSSAPICredentialsD1Ev
0004e31c t __ZN19NLGSSAPICredentials24CopyPrincipalCredentialsEv
0004e384 t __ZN19NLGSSAPICredentialsC1Ev
0004e3d0 t __ZN26NLUserPassCredentialsBlock15CanPreAuthorizeEv
0004e406 t __ZN26NLUserPassCredentialsBlock14GetCredentialsEv
0004e414 t __ZN26NLUserPassCredentialsBlock30CastToUserPassCredentialsBlockEv
0004e41c t __ZN26NLUserPassCredentialsBlock5FInitE16NLAuthSchemeEnumPK10__CFStringtPK7__CFURLS3_
0004e484 t __ZN26NLUserPassCredentialsBlockC2ER21NLUserPassCredentialsRK11NLClassInfo
0004e4e4 t __ZN26NLUserPassCredentialsBlockC1ER21NLUserPassCredentialsRK11NLClassInfo
0004e544 t __ZN26NLUserPassCredentialsBlock6CreateE16NLAuthSchemeEnumPK10__CFStringtPK7__CFURLS3_P13NLCredentials
0004e638 t __ZN26NLUserPassCredentialsBlockD2Ev
0004e6b4 t __ZN26NLUserPassCredentialsBlockD1Ev
0004e730 t __ZN26NLUserPassCredentialsBlockD0Ev
0004e7b4 t __ZN24NLGSSAPICredentialsBlock15CanPreAuthorizeEv
0004e86e t __ZN24NLGSSAPICredentialsBlock14GetCredentialsEv
0004e87c t __ZN24NLGSSAPICredentialsBlock28CastToGSSAPICredentialsBlockEv
0004e884 t __ZN24NLGSSAPICredentialsBlockC1ER19NLGSSAPICredentialsRK11NLClassInfo
0004e8e4 t __ZN24NLGSSAPICredentialsBlock6CreateEPK10__CFStringtPK7__CFURLS2_P13NLCredentials
0004e9d8 t __ZN24NLGSSAPICredentialsBlockD1Ev
0004ea54 t __ZN24NLGSSAPICredentialsBlockD0Ev
0004ead8 t __ZN16AuthCtx_UserPassC2Ev
0004eb08 t __ZN16AuthCtx_UserPass19SetCredentialsBlockEP18NLCredentialsBlock
0004eb28 t __ZN16AuthCtx_UserPass5FInitEPK12NLConnectionP18NLCredentialsBlockb
0004eb8c t __ZN16AuthCtx_UserPass27FCollectProxyRefCredentialsER12NLConnection
0004ec8c t __ZN16AuthCtx_UserPass17HandleAuthFailureEv
0004ecc6 t __ZN16AuthCtx_UserPass15FSetUserAndPassEPK10__CFStringS2_S2_
0004ed54 t __ZN16AuthCtx_UserPassD0Ev
0004eda4 t __ZN16AuthCtx_UserPassD2Ev
0004edec t __ZN16AuthCtx_UserPassD1Ev
0004ee34 t __ZN16AuthCtx_UserPass19FCollectCredentialsER12NLConnectionR20NLMessageRequestHTTPR17NLMessageResponse
0004f07c t __ZN11NLGSSCredID7IsValidEPK10__CFStringRh
0004f138 t __ZN11NLGSSCredIDD0Ev
0004f188 t __ZN11NLGSSCredIDD1Ev
0004f1d0 t __ZN11NLGSSCredIDC1EPv
0004f208 t __ZN22NLConnectionConcurrent13WaitForActionEhhlPhS0_
0004f25e t __ZN22NLConnectionConcurrent15CancelOperationEv
0004f27c t __ZNK22NLConnectionConcurrent15GetSecurityInfoER14NLSecurityInfoPPK8__CFData
0004f2b2 t __ZNK22NLConnectionConcurrent29HasRemoteHostClosedConnectionERh
0004f2f0 t __ZN22NLConnectionConcurrent12GetCookieJarEv
0004f310 t __ZN22NLConnectionConcurrent19GetCredentialsCacheEv
0004f336 t __ZN22NLConnectionConcurrent4SendEPK6NLHostPKvmPm
0004f4de t __ZN22NLConnectionConcurrent7ReceiveEPvmmPm
0004f724 t __ZN22NLConnectionConcurrent11WaitForDataEv
0004f78e t __ZN22NLConnectionConcurrent20GetAvailableDataSizeEv
0004f822 t __ZN22NLConnectionConcurrentD0Ev
0004f8f8 t __ZN22NLConnectionConcurrentD1Ev
0004f9c6 t __ZN22NLConnectionConcurrentD2Ev
0004fa94 t __ZN22NLConnectionConcurrentC2ERK11NLClassInfo
0004fb90 t __ZN22NLConnectionConcurrent7ReceiveER8NLBuffermmPm
0004fd18 t __ZN18NLSocketConcurrent13WaitForActionEhhlPhS0_
0004ff66 t __ZN18NLSocketConcurrent11WaitForDataEm
00050018 t __ZNK18NLSocketConcurrent14CountDataBytesERm
0005006e t __ZNK18NLSocketConcurrent29HasRemoteHostClosedConnectionEv
000500c0 t __ZN18NLSocketConcurrent11GetPeerInfoER6NLHost
0005016a t __ZN18NLSocketConcurrent5WriteEPK6NLHostPKvmmPm
000502aa t __ZN18NLSocketConcurrent13WriteBlockingEPK6NLHostPKvmmPm
00050320 t __ZN18NLSocketConcurrent12GetBoundInfoER6NLHost
00050384 t __ZN18NLSocketConcurrent12GetBoundPortERt
00050408 t __ZN18NLSocketConcurrent4ReadEPvmmPm
000505c6 t __ZN18NLSocketConcurrent12ReadBlockingEPvmmPm
0005065a t __ZN18NLSocketConcurrentD1Ev
000506ea t __ZN18NLSocketConcurrentD2Ev
0005077c t __ZN18NLSocketConcurrentC2EPFlPvES0_
000507f2 t __ZN18NLSocketConcurrentD0Ev
00050888 t __ZN28NLConnectionSSLDataLayerBase18ReceiveServerHelloER18NLSocketConcurrentPPcPmPt
000509ec t __ZN28NLConnectionSSLDataLayerBaseD1Ev
00050a08 t __ZN28NLConnectionSSLDataLayerBaseD2Ev
00050a24 t __ZN28NLConnectionSSLDataLayerBaseC2ER12NLConnectionR18NLSocketConcurrent
00050a58 t __ZN28NLConnectionSSLDataLayerBaseD0Ev
00050a86 t __ZN28NLConnectionSSLDataLayerBase19FEnsureSessionCacheEv
00050adc t __ZN28NLConnectionSSLDataLayerBase17BeginSSLHandshakeER18NLSocketConcurrentR12NLConnectionP13NLAddressInetPP21NLConnectionDataLayer
00050d90 T _NLGetCFMProcPtrFromMachProcPtr
00050e04 T _NLGetProcPtrFromNativeProcPtr
00050e18 T _NLGetMachProcPtrFromCFMProcPtr
00050eda t _NLGetNativeProcPtrFromProcPtr
00050ef0 t __Z12MBUAtomicAddRVll
00050f0a t __Z18MBUAtomicAddReturnRVll
00050f2e t __Z17MBUCompareAndSwapRVmmm
00050f5a t __ZN7MBULockD1Ev
00050f80 t __ZN12MBUSemaphoreD1Ev
00050f9a t __ZN12MBUSemaphore7ReleaseEm
00050fc6 t __ZN13MBUEventGroupD1Ev
00050ff2 t __ZN13MBUEventGroup12WaitOnEventsEmRm
00051046 t ___tcf_0
00051060 t __ZN7MBULockC1EPKc
000510bc t __ZN12MBUSemaphoreC1EPKcmm
00051120 t __Z19MBUCompareThreadIDsRK11MBUThreadIDS1_
00051138 t __Z16MBUDestroyThreadRK11MBUThreadID
00051172 t __Z14MBUThreadSleepm
000511aa t ___tcf_0
000511c4 t __ZN9MBUThreadD0Ev
000511ee t __ZN9MBUThread16NotifyFatalErrorEP7__sFILE
0005122e t __ZN14MBUEventThread16ThreadInitializeEv
00051234 t __ZN14MBUEventThread12WaitOnEventsERm
00051264 t __ZN26MBUEventFiresFunctorThread11HandleEventEh
00051290 t __ZN16MBUThreadTracker24UnregisterThreadWithLockERK11MBUThreadID
000512e6 t __ZN16MBUThreadTracker19UnlockThreadTrackerEv
0005133a t __ZN16MBUThreadTracker17LockThreadTrackerEv
000513ca t __ZN16MBUThreadTracker16UnregisterThreadERK11MBUThreadID
00051406 t __ZN9MBUThreadD2Ev
00051428 t __ZN14MBUEventThreadD0Ev
0005147a t __ZN14MBUEventThreadD1Ev
000514c4 t __ZN14MBUEventThreadD2Ev
0005150e t __ZN9MBUThreadD1Ev
00051530 t __ZN14MBUEventThread16NotifyFatalErrorEP7__sFILE
00051610 t __ZN14MBUEventThread11ThreadEntryEPvS0_
0005168e t __ZNK9MBUThread14DestructObjectEv
000516c8 t __Z11AddAtomic32lPVl
000516da t __Z16CompareAndSwap32mmPVm
000516f0 t __ZN16MemoryManagement37UpdateInternalStateToMatchSystemStateEv
0005175e T _NLRegisterLastCallDeallocationProc
000517b4 T _NLUnregisterLastCallDeallocationProc
00051814 T _NLRegisterAppLastCallDeallocationProc
00051828 T _NLUnregisterAppLastCallDeallocationProc
0005183c T _NLIssueLastCallForDeallocation
000518ce t __Z16GetAllocatorCorev
00051998 T _NLGetCleaningAllocator
000519a2 T _NLGetCFAllocator
000519be T _NLTerminateReserveMemoryManagement
000519ec T _nl_malloc_size_stub
00051a00 t __ZN16MemoryManagement12FCanAllocateEm
00051a60 T _nl_zalloc_stub
00051aa6 T _nl_malloc_stub
00051ae8 t __ZN16MemoryManagement14FCanReallocateEmm
00051b54 t __ZN16MemoryManagement20RequestReserveMemoryEm
00051c1e T _NLRequestReserveMemoryImpl
00051c4a t __ZN16MemoryManagement7DisableEv
00051cc0 T _NLDisableMemoryManagementImpl
00051ce4 t __Z12DoCFAllocatelmPv
00051d64 T _NLEnableReserveMemoryManagement
00051de6 T _nl_realloc_stub
00051e4a t __Z14DoCFReallocatePvlmS_
00051f2a T _nl_free_stub
00051f9c t __Z13DoCFDellocatePvS_
00051ff4 t __ZN16MemoryManagement7RestoreEP24OpaqueEnabledMemoryState
00052032 T _NLRestoreMemoryManagement
0005205e t __ZN16MemoryManagement20ReleaseReserveMemoryEP24OpaqueReserveMemoryState
0005209e T _NLReleaseReserveMemory
000520cc t __ZN15MBUStatsElement24GetAndFormatCurrentValueERd
000520fc t ___tcf_0
00052114 t __ZN13MBUStatsPanel10ResetStatsEv
00052140 t __ZN18MBUStatsPanelGroup10ResetStatsEv
0005216e t __ZN13MBUStatsPanel17DeleteElementListEv
000521ba t __ZN18MBUStatsPanelGroup15DeletePanelListEv
00052212 t __ZN15MBUStatsManager21DeleteStatsPanelGroupEm
000522a2 t __ZN15MBUStatsManager18AddStatsPanelGroupEm
00052324 t __ZN15MBUStatsManagerD1Ev
0005239c t __ZN15MBUStatsManagerC1Ev
00052438 T _NLReadOneCharFromConsole
00052542 T _NLWriteCFStringToConsole
000525de t __Z12PerformWritePKcm
0005267e T _NLWriteToConsole
000526e6 T _NLWriteRgchToConsole
00052736 t __Z13PerformWritevPK10__CFStringPc
0005285e T _NLWriteToConsolev
000528ae T _NLWriteToConsolef
00052900 T _NLConsoleSetLogFile
000529b6 T _NLGetConsoleLogPath
00052a4c t __Z21GetContentsOfCFStringPK10__CFStringPPcPl
00052af8 t __Z12PerformWriteP13NLLogFileInfoPKcl
00052b68 t __Z13PerformWritevP13NLLogFileInfoPK10__CFStringPc
00052bf6 t _NLInitLogFile
00052c9e t _NLAppendCFStringToLog
00052d22 t _NLSetLogFilePath
00052dda t _NLGetLogFilePath
00052e3a t _NLAppendBytesToLog
00052e92 t _NLAppendToLogf
00052eec t _NLAppendToLogv
00052f44 t __Z17NLCreateRemoteMemjPP15OpaqueRemoteMem
00052f9c t __Z18NLDisposeRemoteMemP15OpaqueRemoteMem
00052fbc t __Z15NLCopyRemoteMemP15OpaqueRemoteMemjPvj
00052fd8 t _nlstackcrawl_exception_raise
00053068 t __Z26ExceptionHandlerThreadProcPv
0005314a t __Z25InitExceptionHandlerMutexv
00053194 t __Z29RemoveSafeMemExceptionHandlerR22NLExceptionHandlerData
0005324c t __Z30InstallSafeMemExceptionHandlerR22NLExceptionHandlerData
00053490 t __Z11SafeMemReadPvmS_
000534e8 t __Z19FSafeMemReadFailurev
000534fc t __Z27GetAppNameAndVersionStringsPclS_l
00053592 T _NlSetDisableShipAssert
000535a8 T _NlSetUseShipAssertFile
000535bc T _NLCopyShipAssertFilePathForPid
000537e4 T _NLGetShipAssertFilePath
000538c8 t __Z35ShipAssertLogFileStackCrawlCallbackmPKvS0_PKcS2_mPv
0005392e T _NLAssertShipAssertFailedv
00053cda T _NLAssertShipAssertFailedf
00053d14 T _NLAssertShipAssertFailedfcc
00053d80 T _NLStackCrawl
00054432 t __Z13LogStackFramemPKvS0_PKcS2_mPv
0005449a T _NLLogStackCrawl
000544e6 t __ZN18CLoadedModuleCache16GetModuleAtIndexEj
00054522 t __Z13ReadImageNamejjPjS_
000545c0 t __Z14FCopyMemSafelyP15OpaqueRemoteMemPvmS1_
00054616 t _NLAddressIsInModule
00054648 t _NLModuleGetName
0005465e T _NLModuleLookupNextModule
000546e6 t __ZN18CLoadedModuleCache21ImageSearchComparatorEPKvS1_Pv
00054720 t __ZN18CLoadedModuleCache22RemoveLibraryFromCacheEj
000547b4 t __ZN18CLoadedModuleCache11DeleteCacheEv
00054862 t __ZN22CLiveLoadedModuleCache15EnsureLiveCacheEv
00054904 t __ZN24CRemoteLoadedModuleCache14MapRemoteImageEjP11mach_headerPjS2_
00054a12 T _NLModuleLookupEnd
00054a40 t __ZN18CLoadedModuleCache19FindImageContainingEmPm
00054bfe t __ZN18CLoadedModuleCache17AddLibraryToCacheEP14CCachedLibrary
00054cfa t __ZN18CLoadedModuleCache21AddCFMFragmentToCacheEjjPKcS1_h
00054d96 t __ZN18CLoadedModuleCache19AddMachImageToCacheEPK11mach_headerPKcimh
00054ed0 t __ZN24CRemoteLoadedModuleCache17BuildCacheForTaskEj
0005586a t __ZN24CRemoteLoadedModuleCache17EnsureRemoteCacheEj
00055914 T _NLModuleLookupBegin
00055988 T _NLModuleLookup
00055a12 T _NLSymbolLookup
0005600c T _NLSymbolLookupRegisterCFMFragment
00056070 t __ZN22CLiveLoadedModuleCache18HandleDYLDAddImageEPK11mach_headerl
000560d4 t __ZN18CLoadedModuleCache24RemoveMachImageFromCacheEPK11mach_headerm
000561e8 t __ZN22CLiveLoadedModuleCache21HandleDYLDRemoveImageEPK11mach_headerl
0005621c t __Xnlstackcrawl_exception_raise
00056278 t _nlstackcrawlexception_server
000562ef t _nlstackcrawlexception_server_routine
00056310 t __ZN17MBUInstrumentLock7AcquireEv
00056336 t __ZN17MBUInstrumentLock7ReleaseEv
00056356 t ___tcf_0
0005636e t ___tcf_0
00056388 t -[NLAssertionHandler handleFailureInMethod:object:file:lineNumber:description:]
000563cf t -[NLAssertionHandler handleFailureInFunction:file:lineNumber:description:]
00056416 t +[NLAssertionHandler installHandlerInCurrentThread]
00056459 t +[NLAssertionHandler removeHandlerFromCurrentThread]
0005649c t +[NLAssertionHandler installHandlerInThread:]
0005653e t +[NLAssertionHandler removeHandlerFromThread:]
000565c4 T _NLInstallCocoaAssertHandler
00056724 T _NLRemoveCocoaAssertHandler
00056884 t ___udivdi3
000569ec t ___umoddi3
